(lp0
(dp1
S'company'
p2
V\u4e2d\u56fd\u5927\u5510\u96c6\u56e2\u79d1\u5b66\u6280\u672f\u7814\u7a76\u9662\u6709\u9650\u516c\u53f8 2017\u5e74\u6bd5\u4e1a\u751f\u62db\u8058\u516c\u544a
p3
sS'date_num'
p4
I9101000
sS'raw_date'
p5
V09\u670810\u65e510:00
p6
sS'address'
p7
V\u5357\u5cad\u4e00\u6559102(\u5e02\u573a\u79d1/7642)
p8
sa(dp9
g2
V\u5409\u6797\u65af\u6c83\u666e\u5546\u4e1a\u670d\u52a1\u6709\u9650\u516c\u53f8\u62db\u8058\u4fe1\u606f
p10
sg4
I9101800
sg5
V09\u670810\u65e518:00
p11
sg7
V\u5357\u533a\u7ecf\u4fe1D104
p12
sa(dp13
g2
V2017\u5e74\u4e2d\u56fd\u822a\u5929\u79d1\u6280\u96c6\u56e2\u4e94\u4e00\u4e09\u6240\u53ca\u5176\u4f01\u4e1a\u5ba3\u8bb2\u4f1a
p14
sg4
I9111330
sg5
V09\u670811\u65e513:30
p15
sg7
V\u671d\u9633\u6821\u533a\u5730\u8d28\u5bab208\u4f1a\u8bae\u5ba4(\u5e02\u573a\u79d1/2088)
p16
sa(dp17
g2
V\u200b \u5927\u8fde\u98de\u521b\u4fe1\u606f\u6280\u672f\u6709\u9650\u516c\u53f8
p18
sg4
I9111330
sg5
V09\u670811\u65e513:30
p19
sg7
V\u5357\u533a\u674e\u56db\u5149202(\u5e02\u573a\u79d1/2583)
p20
sa(dp21
g2
V\u5730\u5c71\u8d44\u672c2017\u5e74\u6821\u56ed\u62db\u8058\u5ba3\u8bb2\u4f1a\u53ca\u62db\u8058\u516c\u544a
p22
sg4
I9111330
sg5
V09\u670811\u65e513:30
p23
sg7
V\u7ecf\u4fe1C105(\u5e02\u573a\u79d1/2047)
p24
sa(dp25
g2
V\u4e2d\u56fd\u822a\u5929\u79d1\u6280\u96c6\u56e2\u6821\u56ed\u5ba3\u8bb2\u4f1a
p26
sg4
I9111830
sg5
V09\u670811\u65e518:30
p27
sg7
V\u5357\u5cad\u6821\u533a\u9038\u592b\u697cB516(\u5e02\u573a\u79d1/7731)
p28
sa(dp29
g2
V\u4e1c\u5357\uff08\u798f\u5efa\uff09\u6c7d\u8f66\u5de5\u4e1a\u6709\u9650\u516c\u53f8\u201c\u54c1\u81f4\u751f\u201d \u4e4b\u201c\u6821\u56ed\u738b\u724c\u519b\u201d\u62db\u8058\u7b80\u7ae0
p30
sg4
I9111830
sg5
V09\u670811\u65e518:30
p31
sg7
V\u5357\u5cad\u9038\u592bA202(\u5e02\u573a\u79d1/4047)
p32
sa(dp33
g2
V\u6d59\u6c5f\u963f\u51e1\u63d0\u7535\u5b50\u5546\u52a1\u6709\u9650\u516c\u53f8\uff08\u957f\u6625\u5206\u516c\u53f8\uff09\u6821\u56ed\u62db\u8058
p34
sg4
I9121000
sg5
V09\u670812\u65e510:00
p35
sg7
V\u5357\u533a\u7ecf\u4fe1C105(\u5e02\u573a\u79d1/1540)
p36
sa(dp37
g2
V\u6210\u90fd\u822a\u5929\u6a21\u5851\u80a1\u4efd\u6709\u9650\u516c\u53f8
p38
sg4
I9121330
sg5
V09\u670812\u65e513:30
p39
sg7
V\u5357\u5cad\u6821\u533a\u9038\u592b\u697cA501\u6559\u5ba4(\u5e02\u573a\u79d1/2000)
p40
sa(dp41
g2
V\u200b \u4e2d\u4ea4\u8def\u6865\u5efa\u8bbe\u6709\u9650\u516c\u53f8\u62db\u8058\u7b80\u7ae0
p42
sg4
I9121330
sg5
V09\u670812\u65e513:30
p43
sg7
V\u671d\u9633\u6821\u533a\u6c34\u5de5\u697c419\u6559\u5ba4(\u5e02\u573a\u79d1/2009)
p44
sa(dp45
g2
V\u4e0a\u6d77\u667a\u7fd4\u4fe1\u606f\u79d1\u6280\u53d1\u5c55\u6709\u9650\u516c\u53f8\u6821\u56ed\u62db\u8058
p46
sg4
I9121330
sg5
V09\u670812\u65e513:30
p47
sg7
V\u5357\u5cad\u9038\u592b\u697cA502(\u5e02\u573a\u79d1/2329)
p48
sa(dp49
g2
V\u4e2d\u56fd\u7b2c\u4e00\u6c7d\u8f66\u96c6\u56e2\u516c\u53f82017\u6821\u56ed\u62db\u8058
p50
sg4
I9121730
sg5
V09\u670812\u65e517:30
p51
sg7
V\u5357\u5cad\u6587\u5316\u6d3b\u52a8\u4e2d\u5fc3(\u5e02\u573a\u79d1/27458)
p52
sa(dp53
g2
V\u51cc\u4e91\u5149\u6280\u672f\u96c6\u56e2\u62db\u8058\u4fe1\u606f
p54
sg4
I9121800
sg5
V09\u670812\u65e518:00
p55
sg7
V\u5357\u533a\u7ecf\u4fe1F10
p56
sa(dp57
g2
V2017\u5fb7\u90a6IT\u4e13\u573a\u6821\u56ed\u62db\u8058\u706b\u70ed\u542f\u52a8\uff01
p58
sg4
I9121800
sg5
V09\u670812\u65e518:00
p59
sg7
V\u5357\u533a\u7ecf\u4fe1F5(\u5e02\u573a\u79d1/3285)
p60
sa(dp61
g2
V\u4e2d\u56fd\u4eba\u5bff\u4fdd\u9669\u516c\u53f8\u957f\u6625\u5206\u516c\u53f8\u62db\u8058\u7b80\u7ae0
p62
sg4
I9121800
sg5
V09\u670812\u65e518:00
p63
sg7
V\u7ecf\u4fe1C201(\u5e02\u573a\u79d1/2076)
p64
sa(dp65
g2
V\u53a6\u95e8\u822a\u7a7a\u6709\u9650\u516c\u53f82017\u5e74\u5ea6\u6821\u56ed\u62db\u8058\u542f\u4e8b\uff08\u5730\u70b9\u6709\u6539\u52a8\uff09
p66
sg4
I9121830
sg5
V09\u670812\u65e518:30
p67
sg7
V\u674e\u56db\u5149109(\u5e02\u573a\u79d1/2546)
p68
sa(dp69
g2
V\u6bd5\u9a6c\u5a01\u4e2d\u56fd2017\u6821\u56ed\u62db\u8058\u542f\u52a8 \uff02\u975e\u51e1\u65f6\u673a \uff0c\u975e\u51e1\u4eba\u624d\uff0c\u975e\u51e1\u673a\u9047 \uff02
p70
sg4
I9121830
sg5
V09\u670812\u65e518:30
p71
sg7
V\u5357\u533a\u674e\u56db\u5149\u697c202(\u5e02\u573a\u79d1/6376)
p72
sa(dp73
g2
V\u7d22\u5c3c\u4fe1\u606f\u7cfb\u7edf(\u4e2d\u56fd)\u6709\u9650\u516c\u53f82017\u6821\u56ed\u62db\u8058
p74
sg4
I9121900
sg5
V09\u670812\u65e519:00
p75
sg7
V\u5357\u533a\u674e\u56db\u5149107(\u5e02\u573a\u79d1/4303)
p76
sa(dp77
g2
V\u4e2d\u79d1\u9662\u6838\u5b89\u5168\u6240\u62db\u8058
p78
sg4
I9130930
sg5
V09\u670813\u65e509:30
p79
sg7
V\u5357\u533a\u7ecf\u4fe1C103(\u5e02\u573a\u79d1/2561)
p80
sa(dp81
g2
V\u56db\u5ddd\u822a\u7a7a\u80a1\u4efd\u6709\u9650\u516c\u53f82017\u5e74\u5ea6\u98de\u884c\u5b66\u5458\u62db\u8058\u7b80\u7ae0
p82
sg4
I9131000
sg5
V09\u670813\u65e510:00
p83
sg7
V\u7ecf\u4fe1C109(\u5e02\u573a\u79d1/1470)
p84
sa(dp85
g2
V\u54c8\u5c14\u6ee8\u54c8\u8239\u5bfc\u822a\u6280\u672f\u6709\u9650\u516c\u53f8\u62db\u8058\u7b80\u7ae0
p86
sg4
I9131330
sg5
V09\u670813\u65e513:30
p87
sg7
V\u5357\u533a\u7ecf\u4fe1C107(\u5e02\u573a\u79d1/1932)
p88
sa(dp89
g2
V\u548c\u4f60\u201c\u79fb\u201d\u8d77\uff0c\u8fde\u63a5\u672a\u6765 \u2014\u2014\u4e2d\u56fd\u79fb\u52a82017\u5e74\u5ea6\u6821\u56ed\u62db\u8058
p90
sg4
I9131400
sg5
V09\u670813\u65e514:00
p91
sg7
V\u524d\u536b\u5357\u533a\u7ecf\u4fe1\u62a5\u544a\u5385(\u5e02\u573a\u79d1/4014)
p92
sa(dp93
g2
V\u4e2d\u56fd\u5546\u7528\u98de\u673a\u6709\u9650\u8d23\u4efb\u516c\u53f8 2017\u5e74\u6821\u56ed\u62db\u8058\u516c\u544a
p94
sg4
I9131530
sg5
V09\u670813\u65e515:30
p95
sg7
V\u5357\u533a\u674e\u56db\u5149202(\u5e02\u573a\u79d1/6861)
p96
sa(dp97
g2
V\u5409\u6797\u5409\u5927\u901a\u4fe1\u8bbe\u8ba1\u9662\u80a1\u4efd\u6709\u9650\u516c\u53f8\u62db\u8058
p98
sg4
I9131800
sg5
V09\u670813\u65e518:00
p99
sg7
V\u5357\u6e56\u7b2c\u4e03\u9636\u68af\u6559\u5ba4(\u5e02\u573a\u79d1/510)
p100
sa(dp101
g2
V\u4e00\u6c7d-\u5927\u4f17\u6c7d\u8f66\u6709\u9650\u516c\u53f82017\u6821\u56ed\u62db\u8058\u516c\u544a
p102
sg4
I9131830
sg5
V09\u670813\u65e518:30
p103
sg7
V\u5357\u5cad\u6821\u533a\u6587\u5316\u6d3b\u52a8\u4e2d\u5fc3\uff08\u5927\u793c\u5802\uff09(\u5e02\u573a\u79d1/8326)
p104
sa(dp105
g2
V\u4e00\u6c7d\u89e3\u653e\u9521\u67f42017\u5c4a\u6821\u56ed\u62db\u8058
p106
sg4
I9131830
sg5
V09\u670813\u65e518:30
p107
sg7
V\u5357\u5cad\u9038\u592bA202(\u5e02\u573a\u79d1/3207)
p108
sa(dp109
g2
V\u5b66\u800c\u601d2016\u5c4a\u6821\u56ed\u62db\u8058
p110
sg4
I9131830
sg5
V09\u670813\u65e518:30
p111
sg7
V\u5357\u533a\u7ecf\u4fe1F10(\u5e02\u573a\u79d1/5953)
p112
sa(dp113
g2
V\u9a6c\u4e0a\u6e38\u6821\u56ed\u62db\u8058\u4f1a~\u8463\u4e8b\u957f\u76f4\u8058 \u8fd8\u6709\u514d\u8d39\u65c5\u6e38\u5927\u5956\u7b49\u4f60\u6765\u62bd\uff01
p114
sg4
I9131830
sg5
V09\u670813\u65e518:30
p115
sg7
V\u5357\u533a\u674e\u56db\u5149\u697c202(\u5e02\u573a\u79d1/552)
p116
sa(dp117
g2
V\u200b  \u4f0a\u5229\u96c6\u56e22017\u5e74\u7ba1\u7406\u57f9\u8bad\u751f\u6821\u56ed\u62db\u8058
p118
sg4
I9131830
sg5
V09\u670813\u65e518:30
p119
sg7
V\u5357\u533a\u7ecf\u4fe1F5(\u5e02\u573a\u79d1/14)
p120
sa(dp121
g2
V\u9a6c\u4e0a\u6e382016\u79cb\u5b63\u6821\u56ed\u62db\u8058\u5c97\u4f4d\u4fe1\u606f
p122
sg4
I9131830
sg5
V09\u670813\u65e518:30
p123
sg7
V\u5357\u533a\u674e\u56db\u5149202(\u5e02\u573a\u79d1/8417)
p124
sa(dp125
g2
V\u5b89\u6c382017\u79cb\u5b63\u6821\u62db\u66a8\u51ac\u5b63\u5b9e\u4e60\u751f\u62db\u52df \u5f00\u542f\u4f60\u7684\u65e0\u9650\u672a\u6765\u2014\u20142017\u5b89\u6c38\u79cb\u5b63\u6821\u56ed\u62db\u8058\u66a8\u51ac\u5b63\u5b9e\u4e60\u751f\u62db\u52df
p126
sg4
I9131830
sg5
V09\u670813\u65e518:30
p127
sg7
V\u5357\u533a\u4e1c\u8363\u5927\u53a6B\u533a310\u4f1a\u8bae\u5ba4(\u5e02\u573a\u79d1/2104)
p128
sa(dp129
g2
V\u641c\u72d0\u7545\u6e382017\u6821\u56ed\u62db\u8058
p130
sg4
I9131830
sg5
V09\u670813\u65e518:30
p131
sg7
V\u5357\u533a\u674e\u56db\u5149107(\u5e02\u573a\u79d1/2758)
p132
sa(dp133
g2
V\u949c\u6d3e\u6295\u8d44\u96c6\u56e2 \u62db\u8058\u516c\u544a
p134
sg4
I9141000
sg5
V09\u670814\u65e510:00
p135
sg7
V\u5357\u533a\u7ecf\u4fe1C107(\u5e02\u573a\u79d1/2085)
p136
sa(dp137
g2
V\u957f\u6625\u4e00\u6c7d\u5bcc\u7ef4\u6d77\u62c9\u8f66\u706f\u62db\u8058\u7b80\u7ae0 \u200b
p138
sg4
I9141800
sg5
V09\u670814\u65e518:00
p139
sg7
V\u5357\u5cad\u6821\u533a\u9038\u592b\u697cA206(\u5e02\u573a\u79d1/4400)
p140
sa(dp141
g2
V\u957f\u6625\u5bcc\u7ef4-\u6c5f\u68ee\u81ea\u63a7\u6c7d\u8f66\u9970\u4ef6\u7cfb\u7edf\u6709\u9650\u516c\u53f8  \u62db\u8058\u7b80\u7ae0
p142
sg4
I9141800
sg5
V09\u670814\u65e518:00
p143
sg7
V\u5357\u5cad\u9038\u592bA206(\u5e02\u573a\u79d1/3890)
p144
sa(dp145
g2
V\u4e2d\u5174\u901a\u8baf2017\u5c4a\u6821\u56ed\u62db\u8058\u542f\u52a8\u901a\u77e5
p146
sg4
I9141830
sg5
V09\u670814\u65e518:30
p147
sg7
V\u7ecf\u4fe1\u62a5\u544a\u5385(\u5e02\u573a\u79d1/5542)
p148
sa(dp149
g2
V\u4e00\u6c7d\u91d1\u878d2017\u5c4a\u6821\u56ed\u62db\u8058\u542f\u4e8b
p150
sg4
I9141830
sg5
V09\u670814\u65e518:30
p151
sg7
V\u5357\u533a\u674e\u56db\u5149102(\u5e02\u573a\u79d1/2237)
p152
sa(dp153
g2
V\u4e2d\u5efa\u4e09\u5c40\u96c6\u56e2\u6709\u9650\u516c\u53f8(\u5317\u4eac)  2017\u5e74\u79cb\u5b63\u6821\u56ed\u62db\u8058\u7b80\u7ae0
p154
sg4
I9160900
sg5
V09\u670816\u65e509:00
p155
sg7
V\u5357\u5cad\u9038\u592b\u697cA511(\u5e02\u573a\u79d1/3017)
p156
sa(dp157
g2
V\u4e2d\u5efa\u4e09\u5c40\u7b2c\u4e09\u5efa\u8bbe\u5de5\u7a0b\u6709\u9650\u8d23\u4efb\u516c\u53f8\u62db\u8058
p158
sg4
I9180800
sg5
V09\u670818\u65e508:00
p159
sg7
V\u5357\u5cad\u4e00\u6559101(\u5e02\u573a\u79d1/4059)
p160
sa(dp161
g2
V\u4e2d\u56fd\u4e00\u6c7d2017\u6821\u56ed\u62db\u8058\u5409\u6797\u5927\u5b66\u7b14\u8bd5\u540d\u5355\u516c\u793a
p162
sg4
I9180900
sg5
V09\u670818\u65e509:00
p163
sg7
V\u524d\u536b\u5357\u533a(\u5e02\u573a\u79d1/5140)
p164
sa(dp165
g2
V\u4e9a\u63a7\u79d1\u62802017\u5e74\u62db\u8058\u4fe1\u606f
p166
sg4
I9181330
sg5
V09\u670818\u65e513:30
p167
sg7
V\u5357\u533a\u674e\u56db\u5149\u6559\u5b66\u697c208\u6559\u5ba4(\u5e02\u573a\u79d1/4943)
p168
sa(dp169
g2
V\u70fd\u706b\u901a\u4fe12017\u5e74\u6821\u56ed\u62db\u8058\uff08\u5730\u70b9\u6709\u66f4\u65b0\uff09
p170
sg4
I9181330
sg5
V09\u670818\u65e513:30
p171
sg7
V\u7ecf\u4fe1F7(\u5e02\u573a\u79d1/8050)
p172
sa(dp173
g2
V\u96c5\u783b\u6c5f\u6d41\u57df\u6c34\u7535\u5f00\u53d1\u516c\u53f8\u62db\u8058
p174
sg4
I9181430
sg5
V09\u670818\u65e514:30
p175
sg7
V\u957f\u6625\u5de5\u7a0b\u5b66\u9662\u6e56\u897f\u6821\u533a\u7b2c\u4e03\u6559\u5b66\u697c13\u697c\u62a5\u544a\u5385(\u5e02\u573a\u79d1/829)
p176
sa(dp177
g2
V\u534e\u4fe1\u4fe1\u6258\u80a1\u4efd\u6709\u9650\u516c\u53f82017\u5c4a\u6bd5\u4e1a\u751f\u6821\u56ed\u62db\u8058\u542f\u4e8b
p178
sg4
I9181530
sg5
V09\u670818\u65e515:30
p179
sg7
V\u5357\u533a\u674e\u56db\u5149202(\u5e02\u573a\u79d1/3610)
p180
sa(dp181
g2
V\u4e2d\u5efa\u4e09\u5c40\u6295\u8d44\u53d1\u5c55\u516c\u53f82017\u5e74\u6821\u56ed\u62db\u8058\u542f\u4e8b
p182
sg4
I9181800
sg5
V09\u670818\u65e518:00
p183
sg7
V\u5357\u533a\u674e\u56db\u5149109(\u5e02\u573a\u79d1/2929)
p184
sa(dp185
g2
V\u975e\u51e1\u4e4b\u9080\u2014\u2014\u535a\u4e16\u4e2d\u56fd2017\u6821\u56ed\u62db\u8058\u5168\u9762\u542f\u52a8\uff01
p186
sg4
I9181830
sg5
V09\u670818\u65e518:30
p187
sg7
V\u5357\u5cad\u9038\u592b\u697cB110(\u5e02\u573a\u79d1/6950)
p188
sa(dp189
g2
V\u200b \u5317\u4eac\u94b1\u888b\u5b9d\u652f\u4ed8\u6280\u672f\u6709\u9650\u516c\u53f82017\u5c4a\u6821\u56ed\u62db\u8058\u7b80\u7ae0
p190
sg4
I9181830
sg5
V09\u670818\u65e518:30
p191
sg7
V\u5357\u533a\u674e\u56db\u5149\u6559\u5b66\u697c218\u6559\u5ba4(\u5e02\u573a\u79d1/3020)
p192
sa(dp193
g2
V\u54c8\u5c14\u6ee8\u4e1c\u5b89\u6c7d\u8f66\u53d1\u52a8\u673a\u5236\u9020\u6709\u9650\u516c\u53f8
p194
sg4
I9181830
sg5
V09\u670818\u65e518:30
p195
sg7
V\u9038\u592b\u697cA202(\u5e02\u573a\u79d1/3178)
p196
sa(dp197
g2
V\u4e2d\u7535\u5341\u56db\u6240\u56fd\u777f\u79d1\u6280\u80a1\u4efd\u6709\u9650\u516c\u53f8\u6821\u56ed\u62db\u8058
p198
sg4
I9190800
sg5
V09\u670819\u65e508:00
p199
sg7
V\uff08\u6ce8\u610f\u5730\u70b9\u6709\u66f4\u6539\uff09\u674e\u56db\u51492\u9636(\u5e02\u573a\u79d1/4755)
p200
sa(dp201
g2
V\u4e2d\u56fd\u7535\u5b50\u79d1\u6280\u96c6\u56e2\u516c\u53f8\u7b2c\u4e8c\u5341\u4e03\u7814\u7a76\u62402017\u6821\u56ed\u62db\u8058
p202
sg4
I9191000
sg5
V09\u670819\u65e510:00
p203
sg7
V\u5357\u533a\u9038\u592b109(\u5e02\u573a\u79d1/4268)
p204
sa(dp205
g2
V\u4e2d\u822a\u56fd\u9645-\u5929\u8679\u5546\u573a2017\u5e74\u6821\u56ed\u62db\u8058\u516c\u544a
p206
sg4
I9191530
sg5
V09\u670819\u65e515:30
p207
sg7
V\u7ecf\u4fe1C107(\u5e02\u573a\u79d1/2463)
p208
sa(dp209
g2
V\u6b23\u65fa\u8fbe2017\u5c4a\u6821\u56ed\u62db\u8058
p210
sg4
I9191530
sg5
V09\u670819\u65e515:30
p211
sg7
V\u5357\u5cad\u9038\u592bA411(\u5e02\u573a\u79d1/6082)
p212
sa(dp213
g2
V\u4e91\u9886\u672a\u6765\uff0c\u9996\u822a\u6d6a\u6f6e \u2014\u2014\u6d6a\u6f6e\u96c6\u56e22017\u5c4a\u6821\u56ed\u62db\u8058\u706b\u70ed\u8fdb\u884c\u4e2d
p214
sg4
I9191530
sg5
V09\u670819\u65e515:30
p215
sg7
V\u7ecf\u4fe1F5(\u5e02\u573a\u79d1/7467)
p216
sa(dp217
g2
V\u52aa\u6bd4\u4e9a\u667a\u80fd\u624b\u673a2017\u5c4a\u6821\u56ed\u62db\u8058 \u2014\u2014\u957f\u6625\u7ad9\uff08\u65f6\u95f4\u6709\u53d8\u52a8\uff01\uff01\uff01\u73b0\u573a\u6536\u63a5\u6536\u7b80\u5386\uff0c\u8fdb\u884c\u7b14\u8bd5\uff01\uff09
p218
sg4
I9191800
sg5
V09\u670819\u65e518:00
p219
sg7
V\u7ecf\u4fe1F7(\u5e02\u573a\u79d1/7245)
p220
sa(dp221
g2
V\u6d77\u4fe1\u96c6\u56e22017\u5e74\u6821\u56ed\u62db\u8058
p222
sg4
I9191830
sg5
V09\u670819\u65e518:30
p223
sg7
V\u5357\u533a\u7ecf\u4fe1F6(\u5e02\u573a\u79d1/11429)
p224
sa(dp225
g2
V\u200b \u65b0\u4e1c\u65b92017\u96c6\u56e2\u8054\u5408\u6821\u56ed\u62db\u8058\u706b\u70ed\u542f\u52a8\u5566
p226
sg4
I9191830
sg5
V09\u670819\u65e518:30
p227
sg7
V\u5357\u533a\u674e\u56db\u5149109(\u5e02\u573a\u79d1/5429)
p228
sa(dp229
g2
V\u534e\u57df\u6c7d\u8f66 2017 \u6821\u56ed\u5ba3\u8bb2\u66a8\u62db\u8058\u4f1a---\u5409\u6797\u5927\u5b66\u4e13\u573a
p230
sg4
I9191830
sg5
V09\u670819\u65e518:30
p231
sg7
V\u5357\u5cad\u9038\u592b\u697cA502(\u5e02\u573a\u79d1/2407)
p232
sa(dp233
g2
V\u534e\u57df\u6c7d\u8f66 2017 \u6821\u56ed\u5ba3\u8bb2\u66a8\u62db\u8058\u4f1a---\u5409\u6797\u5927\u5b66\u4e13\u573a
p234
sg4
I9191830
sg5
V09\u670819\u65e518:30
p235
sg7
V\u5357\u5cad\u9038\u592b\u697cA502(\u5e02\u573a\u79d1/2407)
p236
sa(dp237
g2
V\u4e1c\u98ce\u65e5\u4ea72017\u5e74\u5e94\u5c4a\u751f\u79cb\u5b63\u6821\u56ed\u62db\u8058
p238
sg4
I9191830
sg5
V09\u670819\u65e518:30
p239
sg7
V\u5357\u5cad\u9038\u592bA411(\u5e02\u573a\u79d1/10557)
p240
sa(dp241
g2
VTE Connectivity 2017\u6821\u56ed\u62db\u8058
p242
sg4
I9191830
sg5
V09\u670819\u65e518:30
p243
sg7
V\u5357\u5cad
p244
sa(dp245
g2
V\u7ef4\u514b\u591a\u6c7d\u8f66\u6280\u672f\uff08\u4e0a\u6d77\uff09\u6709\u9650\u516c\u53f8
p246
sg4
I9191830
sg5
V09\u670819\u65e518:30
p247
sg7
V\u5357\u5cad\u6821\u533a\u4e00\u6559101(\u5e02\u573a\u79d1/4464)
p248
sa(dp249
g2
V\u200b \u534e\u57df\u6c7d\u8f662017\u6821\u56ed\u62db\u8058\u706b\u70ed\u542f\u52a8
p250
sg4
I9191830
sg5
V09\u670819\u65e518:30
p251
sg7
V\u5357\u5cad\u9038\u592bA502(\u5e02\u573a\u79d1/2119)
p252
sa(dp253
g2
V\u90d1\u5dde\u5b87\u901a\u5ba2\u8f66\u80a1\u4efd\u6709\u9650\u516c\u53f8 2017\u5c4a\u6821\u56ed\u62db\u8058\u7b80\u7ae0
p254
sg4
I9191830
sg5
V09\u670819\u65e518:30
p255
sg7
V\u5357\u5cad\u4e00\u6559123(\u5e02\u573a\u79d1/7974)
p256
sa(dp257
g2
V360\u516c\u53f82017\u6821\u56ed\u62db\u8058\u5927\u6d41\u7a0b\u542f\u52a8
p258
sg4
I9191900
sg5
V09\u670819\u65e519:00
p259
sg7
V\u5357\u533a\u674e\u56db\u5149304(\u5e02\u573a\u79d1/5906)
p260
sa(dp261
g2
V\u4e2d\u56fd\u5357\u65b9\u822a\u7a7a2017\u5c4a\u5409\u6797\u5206\u516c\u53f8\u79cb\u5b63\u6821\u56ed\u62db\u8058\u7b80\u7ae0\u3002\u7d27\u6025\u901a\u77e5\uff1a\u6559\u5ba4\u6539\u4e3a\u4e09\u6559\u516b\u9636\uff01\uff01\uff01\uff01\uff01
p262
sg4
I9191900
sg5
V09\u670819\u65e519:00
p263
sg7
V\u5357\u533a\u4e09\u6559\u516b\u9636(\u5e02\u573a\u79d1/5230)
p264
sa(dp265
g2
V\u4e2d\u56fd\u822a\u5929\u79d1\u5de5\u4e09\u96622017\u5c4a\u6821\u56ed\u62db\u8058
p266
sg4
I9200900
sg5
V09\u670820\u65e509:00
p267
sg7
V\u5357\u5cad\u4f53\u80b2\u9986(\u5e02\u573a\u79d1/4773)
p268
sa(dp269
g2
VSK\u7efc\u5408\u5316\u5b66 2016\u5e74\u79cb\u5b63\u4e2d\u56fd\u4eba\u5316\u5de5Engineer\u62db\u8058\u516c\u544a
p270
sg4
I9201000
sg5
V09\u670820\u65e510:00
p271
sg7
V\u7ecf\u4fe1C101(\u5e02\u573a\u79d1/1232)
p272
sa(dp273
g2
V\u4e2d \u94c1 \u4e5d \u5c40 \u62db \u8058 \u516c \u544a
p274
sg4
I9201000
sg5
V09\u670820\u65e510:00
p275
sg7
V\u5357\u533a\u7ecf\u4fe1C103(\u5e02\u573a\u79d1/3481)
p276
sa(dp277
g2
V\u5e7f\u5dde\u73af\u4fdd\u6295\u8d44\u96c6\u56e2\u6709\u9650\u516c\u53f82017\u5c4a\u6821\u56ed\u62db\u8058\u516c\u544a
p278
sg4
I9201030
sg5
V09\u670820\u65e510:30
p279
sg7
V\u5357\u5cad\u4e00\u6559301(\u5e02\u573a\u79d1/1591)
p280
sa(dp281
g2
V\u4e0a\u6d77\u6cdb\u5fae\u7f51\u7edc\u79d1\u6280\u80a1\u4efd\u6709\u9650\u516c\u53f8 \u5317\u65b9\u5927\u533a\u4e1a\u52a1\u8fd0\u8425\u4e2d\u5fc3\u6821\u62db
p282
sg4
I9201330
sg5
V09\u670820\u65e513:30
p283
sg7
V\u5357\u533a\u7ecf\u4fe1C109(\u5e02\u573a\u79d1/1239)
p284
sa(dp285
g2
V\u4e2d\u56fd\u8054\u901a\u54c8\u5c14\u6ee8\u8f6f\u4ef6\u7814\u7a76\u96622017\u5e74\u6821\u56ed\u62db\u8058
p286
sg4
I9201330
sg5
V09\u670820\u65e513:30
p287
sg7
V\u5357\u533a\u674e\u56db\u5149104(\u5e02\u573a\u79d1/1474)
p288
sa(dp289
g2
V\u4e2d\u56fd\u5efa\u7b51\u7b2c\u516b\u5de5\u7a0b\u5c40\u6709\u9650\u516c\u53f8\u897f\u5357\u5206\u516c\u53f8 \u62db\u8058\u7b80\u7ae0
p290
sg4
I9201330
sg5
V09\u670820\u65e513:30
p291
sg7
V\u6c34\u5de5\u697c519\u6559\u5ba4(\u5e02\u573a\u79d1/2441)
p292
sa(dp293
g2
V\u90d1\u5dde\u6613\u76db\u4fe1\u606f\u6280\u672f\u6709\u9650\u516c\u53f8
p294
sg4
I9201330
sg5
V09\u670820\u65e513:30
p295
sg7
V\u5357\u533a\u7ecf\u4fe1A104
p296
sa(dp297
g2
V\u91d1\u77b3\u96c6\u56e2\u62db\u8058\u7b80\u7ae0
p298
sg4
I9201530
sg5
V09\u670820\u65e515:30
p299
sg7
V\u5357\u533a\u674e\u56db\u5149109(\u5e02\u573a\u79d1/1880)
p300
sa(dp301
g2
V\u8bb0\u5fc6\u79d1\u62802017\u5e74\u6821\u56ed\u62db\u8058
p302
sg4
I9201800
sg5
V09\u670820\u65e518:00
p303
sg7
V\u5357\u533a\u674e\u56db\u5149109(\u5e02\u573a\u79d1/3270)
p304
sa(dp305
g2
V\uff01\uff01\uff01\u5730\u70b9\u6709\u6539\u52a8\uff01\uff01\uff01\u66b4\u98ce\u5f71\u97f3\u96c6\u56e2\u9b54\u955c\u516c\u53f82017\u6821\u56ed\u62db\u8058\u2014\u2014\u7528\u865a\u62df\u5b9a\u4e49\u672a\u6765
p306
sg4
I9201800
sg5
V09\u670820\u65e518:00
p307
sg7
V\u7ecf\u4fe1F8(\u5e02\u573a\u79d1/5215)
p308
sa(dp309
g2
V\u540c\u7a0b\u65c5\u6e382017\u6821\u56ed\u62db\u8058
p310
sg4
I9201800
sg5
V09\u670820\u65e518:00
p311
sg7
V\u674e\u56db\u5149206(\u5e02\u573a\u79d1/3924)
p312
sa(dp313
g2
V\u4e00\u6c7d\u4e30\u7530\u6280\u672f\u5f00\u53d1\u6709\u9650\u516c\u53f8\u62db\u8058\u4fe1\u606f
p314
sg4
I9201800
sg5
V09\u670820\u65e518:00
p315
sg7
V\u5357\u5cad\u6821\u533a\u9038\u592b\u697cB416\u6559\u5ba4(\u5e02\u573a\u79d1/12231)
p316
sa(dp317
g2
V\u6d1b\u9633\u62d6\u62c9\u673a\u7814\u7a76\u6240
p318
sg4
I9201830
sg5
V09\u670820\u65e518:30
p319
sg7
V\u5357\u5cad\u4e00\u6559202(\u5e02\u573a\u79d1/2179)
p320
sa(dp321
g2
V\u54c8\u5c14\u6ee8\u7535\u673a\u5382\u6709\u9650\u8d23\u4efb\u516c\u53f8
p322
sg4
I9201830
sg5
V09\u670820\u65e518:30
p323
sg7
V\u5357\u5cad\u4e00\u6559123(\u5e02\u573a\u79d1/1763)
p324
sa(dp325
g2
V\u5947\u745e\u6377\u8c79\u8def\u864e\u6c7d\u8f66\u6709\u9650\u516c\u53f82017\u5c4a\u6821\u56ed\u62db\u8058\u7b80\u7ae0
p326
sg4
I9201830
sg5
V09\u670820\u65e518:30
p327
sg7
V\u5357\u5cad\u4eff\u751f\u697c(\u5e02\u573a\u79d1/4705)
p328
sa(dp329
g2
V\u5317\u4eac\u4e2d\u8f6f\u878d\u946b\u8ba1\u7b97\u673a\u7cfb\u7edf\u5de5\u7a0b\u6709\u9650\u516c\u53f8
p330
sg4
I9201830
sg5
V09\u670820\u65e518:30
p331
sg7
V\u674e\u56db\u5149303(\u5e02\u573a\u79d1/2075)
p332
sa(dp333
g2
V\u53a6\u95e8\u91d1\u9f99\u8054\u5408\u6c7d\u8f66\u5de5\u4e1a\u6709\u9650\u516c\u53f8
p334
sg4
I9201830
sg5
V09\u670820\u65e518:30
p335
sg7
V\u5357\u5cad\u4e00\u6559101(\u5e02\u573a\u79d1/4220)
p336
sa(dp337
g2
V\u4e1c\u8f6f\u96c6\u56e22017\u6821\u56ed\u62db\u8058
p338
sg4
I9201830
sg5
V09\u670820\u65e518:30
p339
sg7
V\u5357\u533a\u9038\u592b\u5341\u4e09\u9636(\u5e02\u573a\u79d1/4080)
p340
sa(dp341
g2
V\u6d77\u5c14\u62db\u80582017 \u2014\u2014\u6d77\u5c14-\u672a\u6765\u5408\u4f19
p342
sg4
I9201830
sg5
V09\u670820\u65e518:30
p343
sg7
V\u5357\u533a\u7ecf\u4fe1F10(\u5e02\u573a\u79d1/10624)
p344
sa(dp345
g2
VCVTE 2017\u6821\u56ed\u62db\u8058
p346
sg4
I9210800
sg5
V09\u670821\u65e508:00
p347
sg7
V\u7ecf\u4fe1C301(\u5e02\u573a\u79d1/4075)
p348
sa(dp349
g2
V\u5de5\u4e1a\u548c\u4fe1\u606f\u5316\u90e8\u4eba\u624d\u4ea4\u6d41\u4e2d\u5fc3 \uff082016\u5e74\u5ea6\uff09\u5168\u56fd\u535a\u58eb\u5de1\u56de\u4e13\u573a\u62db\u8058\u4f1a
p350
sg4
I9210900
sg5
V09\u670821\u65e509:00
p351
sg7
V\u5357\u533a\u7bee\u7403\u9986(\u5e02\u573a\u79d1/8833)
p352
sa(dp353
g2
V\u4e1c\u5317\u533b\u7597\u536b\u751f\u751f\u7269\u5236\u836f\u62db\u8058\u4f1a
p354
sg4
I9210900
sg5
V09\u670821\u65e509:00
p355
sg7
V\u65b0\u6c11\u6821\u533a\u4f53\u80b2\u9986(\u5e02\u573a\u79d1/1396)
p356
sa(dp357
g2
V\u200b\u795e\u94a2\u96c6\u56e2\uff0d2017\u5e74\u6bd5\u4e1a\u751f\u8d74\u65e5\u5c31\u4e1a\u62db\u8058
p358
sg4
I9211000
sg5
V09\u670821\u65e510:00
p359
sg7
V\u5357\u5cad\u9038\u592b\u697cA501(\u5e02\u573a\u79d1/2737)
p360
sa(dp361
g2
V\u5c71\u4e1c\u7701\u6cf0\u5b89\u5e02\u4eba\u793e\u5c40\u6821\u62db\uff01\uff01\uff01\uff01\uff01\u5409\u5927\u5357\u6821\u4e13\u573a\uff01\uff01\uff01\uff01
p362
sg4
I9211000
sg5
V09\u670821\u65e510:00
p363
sg7
V\u4e09\u6559\u516d\u9636(\u5e02\u573a\u79d1/1160)
p364
sa(dp365
g2
V\uff08\u5730\u70b9\u6709\u6539\u52a8\uff01\uff01\uff09\u6210\u90fd\u5929\u5965\u7535\u5b50\u80a1\u4efd\u6709\u9650\u516c\u53f8
p366
sg4
I9211000
sg5
V09\u670821\u65e510:00
p367
sg7
V\u5357\u533a\u7ecf\u4fe1C101(\u5e02\u573a\u79d1/1532)
p368
sa(dp369
g2
V\u5408\u80a5\u5de5\u4e1a\u5927\u5b662016\u5e74\u6559\u5e08\u62db\u8058\u516c\u544a
p370
sg4
I9211000
sg5
V09\u670821\u65e510:00
p371
sg7
V\u5357\u533a\u7ecf\u4fe1D301(\u5e02\u573a\u79d1/1978)
p372
sa(dp373
g2
V\u5bcc\u58eb\u5eb7\u79d1\u6280\u96c6\u56e2\u9e3f\u5bcc\u9526\u7cbe\u5bc6\u7535\u5b50(\u5929\u6d25)\u6709\u9650\u516c\u53f8
p374
sg4
I9211000
sg5
V09\u670821\u65e510:00
p375
sg7
V\u674e\u56db\u5149104(\u5e02\u573a\u79d1/2621)
p376
sa(dp377
g2
V\uff08\u5357\u5cad\u4e13\u573a\uff09\u821c\u5b87\u5149\u5b66\u79d1\u6280(\u96c6\u56e2)\u6709\u9650\u516c\u53f8\u6821\u56ed\u62db\u8058
p378
sg4
I9211330
sg5
V09\u670821\u65e513:30
p379
sg7
V\u5357\u5cad\u4e00\u6559222(\u5e02\u573a\u79d1/3891)
p380
sa(dp381
g2
V\u4e2d\u56fd\u79d1\u5b66\u9662\u6c88\u9633\u81ea\u52a8\u5316\u7814\u7a76\u6240 2016-2017\u5e74\u6821\u56ed\u62db\u8058
p382
sg4
I9211330
sg5
V09\u670821\u65e513:30
p383
sg7
V\u5357\u533a\u674e\u56db\u5149310(\u5e02\u573a\u79d1/2819)
p384
sa(dp385
g2
V\u60e0\u5dde\u5e02\u84dd\u5fae\u65b0\u6e90\u6280\u672f\u6709\u9650\u516c\u53f8\u6821\u56ed\u62db\u8058
p386
sg4
I9211330
sg5
V09\u670821\u65e513:30
p387
sg7
V\u5357\u533a\u7ecf\u4fe1C111(\u5e02\u573a\u79d1/1275)
p388
sa(dp389
g2
V\u54c8\u5c14\u6ee8\u5e02\u79d1\u4f73\u901a\u7528\u673a\u7535\u6709\u9650\u516c\u53f8     2017\u5c4a\u6821\u56ed\u62db\u8058\u7b80\u7ae0
p390
sg4
I9211330
sg5
V09\u670821\u65e513:30
p391
sg7
V\u5357\u533a
p392
sa(dp393
g2
V\u4e2d\u592e\u67d0\u653f\u6cd5\u673a\u5173\u9884\u9009
p394
sg4
I9211400
sg5
V09\u670821\u65e514:00
p395
sg7
V\u5357\u533a\u7ecf\u4fe1c201(\u5e02\u573a\u79d1/1926)
p396
sa(dp397
g2
V\u7528 \u201c\u82af\u201d \u6210 \u5c31 \u672a \u6765--------2017\u5e74\u4e2d\u82af\u56fd\u9645\u6821\u56ed\u62db\u8058
p398
sg4
I9211530
sg5
V09\u670821\u65e515:30
p399
sg7
V\u7ecf\u4fe1F2
p400
sa(dp401
g2
V\u6606\u5c71\u56fd\u663e\u5149\u7535\u6709\u9650\u516c\u53f8\u62db\u8058
p402
sg4
I9211530
sg5
V09\u670821\u65e515:30
p403
sg7
V\u5357\u533a\u674e\u56db\u5149109(\u5e02\u573a\u79d1/2002)
p404
sa(dp405
g2
V\u4e0a\u6d77\u6c47\u4f17\u6c7d\u8f66\u5236\u9020\u6709\u9650\u516c\u53f8 2017\u5c4a\u6821\u56ed\u62db\u8058\u884c\u52a8
p406
sg4
I9211530
sg5
V09\u670821\u65e515:30
p407
sg7
V\u5357\u5cad\u4e8c\u6559314(\u5e02\u573a\u79d1/4060)
p408
sa(dp409
g2
V\u7528 \u201c\u82af\u201d \u6210 \u5c31 \u672a \u6765--------2017\u5e74\u4e2d\u82af\u56fd\u9645\u6821\u56ed\u62db\u8058
p410
sg4
I9211530
sg5
V09\u670821\u65e515:30
p411
sg7
V\u7ecf\u4fe1F2
p412
sa(dp413
g2
V\u200b 58\u96c6\u56e22017\u5c4a\u6821\u56ed\u62db\u8058
p414
sg4
I9211700
sg5
V09\u670821\u65e517:00
p415
sg7
V\u5357\u533a\u5f85\u5b9a(\u5e02\u573a\u79d1/3792)
p416
sa(dp417
g2
V\u4e2d\u56fd\u4eba\u6c11\u89e3\u653e\u519b\u603b\u53c2\u8c0b\u7b2c\u516d\u5341\u7814\u7a76\u6240
p418
sg4
I9211800
sg5
V09\u670821\u65e518:00
p419
sg7
V\u5357\u533a\u674e\u56db\u5149107(\u5e02\u573a\u79d1/5809)
p420
sa(dp421
g2
V\u5e7f\u6c7d\u96c6\u56e22017\u6821\u56ed\u62db\u8058\u706b\u70ed\u8fdb\u884c\u4e2d\uff01
p422
sg4
I9211830
sg5
V09\u670821\u65e518:30
p423
sg7
V\u5357\u5cad\u4eff\u751f\u697c\u62a5\u544a\u5385(\u5e02\u573a\u79d1/8249)
p424
sa(dp425
g2
V\u200b \u4e2d\u56fd\u822a\u4fe12017\u6821\u56ed\u62db\u8058
p426
sg4
I9211830
sg5
V09\u670821\u65e518:30
p427
sg7
V\u5357\u533a\u674e\u56db\u5149109(\u5e02\u573a\u79d1/2075)
p428
sa(dp429
g2
V\u200b \u5317\u4eac\u8054\u521b\u667a\u878d\u4fe1\u606f\u6280\u672f\u6709\u9650\u516c\u53f82017\u6821\u56ed\u62db\u8058
p430
sg4
I9211830
sg5
V09\u670821\u65e518:30
p431
sg7
V\u5357\u533a\u674e\u56db\u5149214(\u5e02\u573a\u79d1/1480)
p432
sa(dp433
g2
V2017\u5e74\u5c71\u4e1c\u98de\u6e90\u79d1\u6280\u6709\u9650\u516c\u53f8\u62db\u8058
p434
sg4
I9211830
sg5
V09\u670821\u65e518:30
p435
sg7
V\u5357\u533a\u7ecf\u4fe1C103(\u5e02\u573a\u79d1/1857)
p436
sa(dp437
g2
V\u200b \u52a0\u5165\u534e\u6e05\uff0c\u68a6\u60f3\u98de\u626c\uff01\u2014\u2014\u4e92\u8054\u7f51\u4e0a\u5e02\u6e38\u620f\u516c\u53f8\u534e\u6e05\u98de\u626c2017\u6821\u56ed\u62db\u8058\u5ba3\u8bb2\u4f1a
p438
sg4
I9211830
sg5
V09\u670821\u65e518:30
p439
sg7
V\u5357\u533a\u674e\u56db\u5149204(\u5e02\u573a\u79d1/4034)
p440
sa(dp441
g2
V\u5c71\u4e1c\u7701\u6cf0\u5b89\u4eba\u793e\u5c40\u6821\u62db\uff01\uff01\u5357\u5cad\u4e13\u573a\uff01\uff01\uff01\uff01\uff01
p442
sg4
I9211830
sg5
V09\u670821\u65e518:30
p443
sg7
V\u4e00\u6559102(\u5e02\u573a\u79d1/1142)
p444
sa(dp445
g2
V\u65b0\u80fd\u6e90\u96c6\u56e22017\u5c4a\u6821\u56ed\u62db\u8058\uff08\u539f\u5357\u5cad\u5ba3\u8bb2\u53d6\u6d88\uff09
p446
sg4
I9211830
sg5
V09\u670821\u65e518:30
p447
sg7
V\u5357\u533a\u7ecf\u4fe1F5(\u5e02\u573a\u79d1/7906)
p448
sa(dp449
g2
V58\u96c6\u56e22017\u5c4a\u6821\u56ed\u62db\u8058
p450
sg4
I9211900
sg5
V09\u670821\u65e519:00
p451
sg7
V\u5357\u533a\u7ecf\u4fe1F10
p452
sa(dp453
g2
V\u7b2c\u5341\u4e8c\u5c4a\u5168\u5b66\u9662\u6821\u6bd5\u4e1a\u751f\u533b\u7597\u536b\u751f\u3001\u751f\u7269\u5236\u836f\u4e13\u573a\u5de1\u56de\u62db\u8058\u4f1a\u2014\u2014\u5409\u6797\u5927\u5b66\u7ad9
p454
sg4
I9220830
sg5
V09\u670822\u65e508:30
p455
sg7
V\u65b0\u6c11\u6821\u533a\u65b0\u6c11\u4f53\u80b2\u9986(\u5e02\u573a\u79d1/1358)
p456
sa(dp457
g2
V2016\u6c5f\u82cf\u201c\u540d\u6821\u4f18\u751f\u201d\u5f15\u624d\u6d3b\u52a8--\u4e1c\u5317\u7ebf\u62db\u8058\u516c\u544a
p458
sg4
I9220900
sg5
V09\u670822\u65e509:00
p459
sg7
V\u5357\u533a\u4f53\u80b2\u9986\u6392\u7403\u9986(\u5e02\u573a\u79d1/2243)
p460
sa(dp461
g2
V\u4e2d\u56fd\u5de5\u5546\u94f6\u884c\u8f6f\u4ef6\u5f00\u53d1\u4e2d\u5fc32017\u5e74\u5ea6\u6821\u56ed\u62db\u8058
p462
sg4
I9220930
sg5
V09\u670822\u65e509:30
p463
sg7
V\u5357\u533a\u674e\u56db\u5149204(\u5e02\u573a\u79d1/1933)
p464
sa(dp465
g2
V\u200b \u822a\u5929\u7535\u5668\u62db\u8058\u4fe1\u606f
p466
sg4
I9221000
sg5
V09\u670822\u65e510:00
p467
sg7
V\u5357\u5cad\u4e00\u6559124\u6559\u5ba4(\u5e02\u573a\u79d1/3670)
p468
sa(dp469
g2
V\u4e2d\u56fd\u5927\u5730\u8d22\u4ea7\u4fdd\u9669\u516c\u53f82016\u5e74\u79cb\u5b63\u6821\u56ed\u62db\u8058
p470
sg4
I9221300
sg5
V09\u670822\u65e513:00
p471
sg7
V\u5357\u533a\u4e1c\u8363\u5927\u53a6\u4e8c\u697c\u591a\u529f\u80fd\u5385(\u5e02\u573a\u79d1/1595)
p472
sa(dp473
g2
V\u4e2d\u56fd\u5927\u5730\u8d22\u96692017\u6821\u56ed\u62db\u8058
p474
sg4
I9221300
sg5
V09\u670822\u65e513:00
p475
sg7
V\u5357\u533a\u4e1c\u8363\u5927\u53a6\u4f1a\u8bae\u4e2d\u5fc32\u697c\u591a\u529f\u80fd\u5385(\u5e02\u573a\u79d1/714)
p476
sa(dp477
g2
V\u5927\u8fde\u5149\u6d0b\u79d1\u6280\u96c6\u56e2\u6709\u9650\u516c\u53f8
p478
sg4
I9221330
sg5
V09\u670822\u65e513:30
p479
sg7
V\u5357\u533a\u674e\u56db\u5149408(\u5e02\u573a\u79d1/2268)
p480
sa(dp481
g2
V\u4e2d\u56fd\u5341\u4e03\u51b6\u96c6\u56e2\u6709\u9650\u516c\u53f8
p482
sg4
I9221330
sg5
V09\u670822\u65e513:30
p483
sg7
V\u4e00\u6559124(\u5e02\u573a\u79d1/2035)
p484
sa(dp485
g2
V\u6d77\u80fd\u8fbe\u901a\u4fe1\u80a1\u4efd\u6709\u9650\u516c\u53f82017\u6821\u56ed\u62db\u8058 \u2014\u2014\u4e3a\u68a6\u60f3\u53d1\u58f0 \u8ba9\u4e16\u754c\u542c\u6211\u7684
p486
sg4
I9221330
sg5
V09\u670822\u65e513:30
p487
sg7
V\u7ecf\u4fe1F5(\u5e02\u573a\u79d1/4412)
p488
sa(dp489
g2
V\u5b89\u5fbd\u82af\u745e\u8fbe\u7535\u5b50\u79d1\u6280\u6709\u9650\u516c\u53f8\u6821\u56ed\u62db\u8058
p490
sg4
I9221330
sg5
V09\u670822\u65e513:30
p491
sg7
V\u5357\u533a\u7ecf\u4fe1C105(\u5e02\u573a\u79d1/1501)
p492
sa(dp493
g2
V\u200bNTT DATA\u901a\u4fe1\u8f6f\u4ef6\u5de5\u7a0b\uff08\u5927\u8fde\uff09\u6709\u9650\u516c\u53f8
p494
sg4
I9221330
sg5
V09\u670822\u65e513:30
p495
sg7
V\u5357\u533a\u7ecf\u4fe1C301(\u5e02\u573a\u79d1/1348)
p496
sa(dp497
g2
V\u534e\u6668\u5b9d\u9a6c\u6c7d\u8f66\u6709\u9650\u516c\u53f8\u7cbe\u82f1\u7855\u58eb\u57f9\u8bad\u751f\u9879\u76ee
p498
sg4
I9221330
sg5
V09\u670822\u65e513:30
p499
sg7
V\u5357\u5cad\u9038\u592bB211(\u5e02\u573a\u79d1/4474)
p500
sa(dp501
g2
V\u200b \u987a\u4e30\u79d1\u6280\u6709\u9650\u516c\u53f8 2017\u5c4a\u6821\u56ed\u62db\u8058\u7b80\u7ae0
p502
sg4
I9221330
sg5
V09\u670822\u65e513:30
p503
sg7
V\u5357\u533a\u7ecf\u4fe1F11(\u5e02\u573a\u79d1/4162)
p504
sa(dp505
g2
V\u5927\u8fde\u201c\u4eba\u624d\u5927\u7bf7\u8f66\u201d\u56fd\u5185\u884c\u3001\u6821\u56ed\u884c\u5409\u6797\u5927\u5b66\u7ad9 \u2014\u2014\u5927\u8fde\u5e02\u91cd\u70b9\u4ea7\u4e1a\u7d27\u7f3a\u4eba\u624d\u62db\u8058\u4f1a
p506
sg4
I9221400
sg5
V09\u670822\u65e514:00
p507
sg7
V\u5357\u5cad\u4f53\u80b2\u9986(\u5e02\u573a\u79d1/3399)
p508
sa(dp509
g2
V\u4e2d\u8f66\u9752\u5c9b\u56db\u65b9\u8f66\u8f86\u7814\u7a76\u6240\u6709\u9650\u516c\u53f8 \u6821\u56ed\u62db\u8058\u516c\u544a
p510
sg4
I9221530
sg5
V09\u670822\u65e515:30
p511
sg7
V\u5357\u5cad
p512
sa(dp513
g2
V\u4e2d\u94c1\u5efa\u8bbe\u96c6\u56e2\u6709\u9650\u516c\u53f8 2017\u5e74\u5e94\u5c4a\u5927\u5b66\u6bd5\u4e1a\u751f\u6821\u56ed\u62db\u8058
p514
sg4
I9221530
sg5
V09\u670822\u65e515:30
p515
sg7
V\u5357\u533a\u7ecf\u4fe1A109(\u5e02\u573a\u79d1/2493)
p516
sa(dp517
g2
V\u9655\u897f\u6c7d\u8f66\u96c6\u56e2\u9655\u897f\u6c49\u5fb7\u8f66\u6865\u6709\u9650\u516c\u53f8
p518
sg4
I9221530
sg5
V09\u670822\u65e515:30
p519
sg7
V\u5357\u5cad\u9038\u592bA202(\u5e02\u573a\u79d1/1996)
p520
sa(dp521
g2
V\u6f6e\u5dde\u4e09\u73af\uff08\u96c6\u56e2\uff09\u80a1\u4efd\u6709\u9650\u516c\u53f82017\u5c4a\u6821\u56ed\u62db\u8058
p522
sg4
I9221530
sg5
V09\u670822\u65e515:30
p523
sg7
V\u5357\u5cad\u4e00\u6559123(\u5e02\u573a\u79d1/3232)
p524
sa(dp525
g2
V\u200b \u5317\u4eac\u914d\u5929\u6280\u672f\u6709\u9650\u516c\u53f82017\u6821\u56ed\u62db\u8058
p526
sg4
I9221530
sg5
V09\u670822\u65e515:30
p527
sg7
V\u5357\u5cad\u9038\u592bB114(\u5e02\u573a\u79d1/2049)
p528
sa(dp529
g2
V\u4e2d\u56fd\u7535\u5b50\u79d1\u6280\u96c6\u56e2\u516c\u53f8\u7b2c\u5341\u4e09\u7814\u7a76\u6240\u62db\u8058\u4fe1\u606f
p530
sg4
I9221800
sg5
V09\u670822\u65e518:00
p531
sg7
V\u5357\u533a\u674e\u56db\u5149\u6559\u5b66\u697c109\u6559\u5ba4(\u5e02\u573a\u79d1/3261)
p532
sa(dp533
g2
V\u200b \u534e\u5b872017\u5c4a\u6821\u56ed\u62db\u8058\u7b80\u7ae0
p534
sg4
I9221800
sg5
V09\u670822\u65e518:00
p535
sg7
V\u5357\u533a\u674e\u56db\u5149104(\u5e02\u573a\u79d1/4378)
p536
sa(dp537
g2
V\u200b \u200b2017\u5b9d\u6d01\u9500\u552e\u90e8\uff08CBD\uff09\u6821\u56ed\u62db\u8058\u5f00\u59cb\u5566 \u5e74\u5ea6\u5927\u620f,High\u7ffb\u6c42\u804c\u5b63
p538
sg4
I9221800
sg5
V09\u670822\u65e518:00
p539
sg7
V\u5357\u533a\u7ecf\u4fe1F5(\u5e02\u573a\u79d1/6231)
p540
sa(dp541
g2
V\u987e\u5bb6\u5bb6\u5c45\u80a1\u4efd\u6709\u9650\u516c\u53f82017\u5c4a\u6821\u56ed\u62db\u8058
p542
sg4
I9221830
sg5
V09\u670822\u65e518:30
p543
sg7
V\u5357\u533a\u674e\u56db\u5149107(\u5e02\u573a\u79d1/1485)
p544
sa(dp545
g2
V\u4e2d\u56fd\u7535\u5b50\u79d1\u6280\u96c6\u56e2\u516c\u53f8\u7b2c43\u7814\u7a76\u6240
p546
sg4
I9221830
sg5
V09\u670822\u65e518:30
p547
sg7
V\u5357\u533a\u7ecf\u4fe1C109(\u5e02\u573a\u79d1/2572)
p548
sa(dp549
g2
V\u8fea\u5361\u4fac\u6821\u56ed\u62db\u8058
p550
sg4
I9221830
sg5
V09\u670822\u65e518:30
p551
sg7
V\u5357\u533a\u674e\u56db\u5149\u4e00\u9636(\u5e02\u573a\u79d1/2892)
p552
sa(dp553
g2
V\u200b\u8ffd\u6c42\u5353\u8d8a\u8d85\u8d8a\u81ea\u6211  \u2014\u2014\u4e2d\u56fd\u6838\u80fd\u7535\u529b\u80a1\u4efd\u6709\u9650\u516c\u53f82017\u6821\u56ed\u62db\u8058
p554
sg4
I9221900
sg5
V09\u670822\u65e519:00
p555
sg7
V\u5357\u533a\u674e\u56db\u5149202(\u5e02\u573a\u79d1/1595)
p556
sa(dp557
g2
V\u5e7f\u5dde\u5730\u94c1\u8bbe\u8ba1\u7814\u7a76\u9662\u6709\u9650\u516c\u53f82017\u5e74\u6821\u56ed\u62db\u8058\u4fe1\u606f
p558
sg4
I9221930
sg5
V09\u670822\u65e519:30
p559
sg7
V\u5357\u533a\u674e\u56db\u5149\u6559\u5b66\u697c213\u6559\u5ba4(\u5e02\u573a\u79d1/2089)
p560
sa(dp561
g2
V\u4e2d\u56fd\u7535\u5b50\u79d1\u6280\u96c6\u56e2\u6821\u56ed\u62db\u8058\uff08\u6709\u66f4\u65b0\uff09
p562
sg4
I9230830
sg5
V09\u670823\u65e508:30
p563
sg7
V\u524d\u536b\u5357\u533a\u4f53\u80b2\u9986
p564
sa(dp565
g2
V\u4e2d\u56fd\u5efa\u7b51\u516d\u5c402017\u5e74\u6821\u56ed\u62db\u8058\u542f\u4e8b
p566
sg4
I9230900
sg5
V09\u670823\u65e509:00
p567
sg7
V\u6c34\u5de5\u697c419(\u5e02\u573a\u79d1/3203)
p568
sa(dp569
g2
V\u4e2d\u56fd\u822a\u53d1\u63a7\u5236\u7cfb\u7edf\u7814\u7a76\u6240 \u62db\u8058\u7b80\u7ae0
p570
sg4
I9230930
sg5
V09\u670823\u65e509:30
p571
sg7
V\u5357\u533a\u9038\u592b305(\u5e02\u573a\u79d1/1884)
p572
sa(dp573
g2
V\u4e1c\u8f6f\u777f\u9a702016\u79cb\u5b63\u6821\u56ed\u62db\u8058
p574
sg4
I9231000
sg5
V09\u670823\u65e510:00
p575
sg7
V\u5357\u533a\u674e\u56db\u5149107\u6559\u5ba4(\u5e02\u573a\u79d1/1879)
p576
sa(dp577
g2
V\u683c\u7279\u62c9\u514b\uff08\u6c5f\u897f\uff09\u4f20\u52a8\u7cfb\u7edf\u6709\u9650\u516c\u53f8
p578
sg4
I9231000
sg5
V09\u670823\u65e510:00
p579
sg7
V\u5357\u5cad\u4e00\u6559101(\u5e02\u573a\u79d1/1416)
p580
sa(dp581
g2
V\u660e\u7565\u6570\u636e\u62db\u751f\u7b80\u7ae0
p582
sg4
I9231330
sg5
V09\u670823\u65e513:30
p583
sg7
V\u5357\u533a\u7ecf\u4fe1c105(\u5e02\u573a\u79d1/1511)
p584
sa(dp585
g2
V\u957f\u6625\u5bcc\u5965\u77f3\u5ddd\u5c9b\u589e\u538b\u5668\u6709\u9650\u516c\u53f82016\u5e74\u79cb\u5b63\u62db\u8058
p586
sg4
I9231330
sg5
V09\u670823\u65e513:30
p587
sg7
V\u5357\u5cad
p588
sa(dp589
g2
V\u4e2d\u7535\u5341\u62402017\u5e74\u6821\u56ed\u62db\u8058\u7b80\u7ae0
p590
sg4
I9231330
sg5
V09\u670823\u65e513:30
p591
sg7
V\u674e\u56db\u5149107(\u5e02\u573a\u79d1/4009)
p592
sa(dp593
g2
V\u4e2d\u56fd\u79d1\u5b66\u9662\u8f6f\u4ef6\u7814\u7a76\u6240\u62db\u8058\u4fe1\u606f
p594
sg4
I9231330
sg5
V09\u670823\u65e513:30
p595
sg7
V\u5357\u533a\u7ecf\u4fe1C301\u3001C307\u6559\u5ba4(\u5e02\u573a\u79d1/2059)
p596
sa(dp597
g2
V\u65b0\u4e1c\u5317\u7535\u6c14\u96c6\u56e2\u9ad8\u538b\u5f00\u5173\u8bbe\u5907\u6709\u9650\u516c\u53f8\u62db\u8058\u4fe1\u606f
p598
sg4
I9231330
sg5
V09\u670823\u65e513:30
p599
sg7
V\u5357\u533a\u674e\u56db\u5149\u6559\u5b66\u697c\u4e8c\u9636(\u5e02\u573a\u79d1/2086)
p600
sa(dp601
g2
V\u4e0a\u6d77\u5b9d\u51b6\u96c6\u56e2\u6709\u9650\u516c\u53f8 2017\u5c4a\u9ad8\u6821\u6bd5\u4e1a\u751f\u62db\u8058\u7b80\u7ae0
p602
sg4
I9231330
sg5
V09\u670823\u65e513:30
p603
sg7
V\u674e\u56db\u5149109(\u5e02\u573a\u79d1/2419)
p604
sa(dp605
g2
V\u9ea6\u683c\u7eb3-\u5361\u65af\u9a6c2017\u6821\u56ed\u62db\u8058\u4fe1\u606f
p606
sg4
I9231330
sg5
V09\u670823\u65e513:30
p607
sg7
V\u5357\u5cad\u9038\u592bB110(\u5e02\u573a\u79d1/3648)
p608
sa(dp609
g2
V\u5927\u8fde\u9ad8\u65b0\u533a\u4e1c\u5317\u6821\u56ed\u62db\u8058\u4f1a
p610
sg4
I9231400
sg5
V09\u670823\u65e514:00
p611
sg7
V\u524d\u536b\u6821\u533a\u6392\u7403\u9986(\u5e02\u573a\u79d1/2321)
p612
sa(dp613
g2
V\u5320\u5fc3\u7b51\u68a6\uff0c\u9886\u521b\u672a\u6765 \uff01 \u5317\u6c7d\u96c6\u56e22017\u5c4a\u79cb\u5b63\u6821\u56ed\u62db\u8058\u706b\u70ed\u8fdb\u884c\u4e2d\uff01
p614
sg4
I9231400
sg5
V09\u670823\u65e514:00
p615
sg7
V\u5357\u5cad\u6587\u5316\u6d3b\u52a8\u4e2d\u5fc3(\u5e02\u573a\u79d1/4181)
p616
sa(dp617
g2
V\u4e2d\u56fd\u5de5\u5546\u94f6\u884c\u5409\u6797\u7701\u5206\u884c2017\u5e74\u5ea6\u6821\u56ed\u62db\u8058
p618
sg4
I9231530
sg5
V09\u670823\u65e515:30
p619
sg7
V\u524d\u536b\u5357\u533a
p620
sa(dp621
g2
V\u6df1\u5733\u91d1\u4fe1\u8bfa\u9ad8\u65b0\u6280\u672f\u80a1\u4efd\u6709\u9650\u516c\u53f8 \u201c\u9752\u5c71\u8ba1\u5212\u201d2017\u5c4a\u6821\u56ed\u62db\u8058\u7b80\u7ae0
p622
sg4
I9231530
sg5
V09\u670823\u65e515:30
p623
sg7
V\u674e\u56db\u5149308(\u5e02\u573a\u79d1/1851)
p624
sa(dp625
g2
V\u200b \u5e7f\u6c7d\u672c\u75302017\u201c\u9a71\u52a8\u672a\u6765\u7684\u559c\u60a6\u201d\u6821\u56ed\u62db\u8058\u542f\u52a8\u5566\uff01
p626
sg4
I9231600
sg5
V09\u670823\u65e516:00
p627
sg7
V\u5357\u5cad\u9038\u592b\u697cA411(\u5e02\u573a\u79d1/4066)
p628
sa(dp629
g2
V\u200b \uff01\uff01\uff01\u5730\u70b9\u6709\u53d8\u52a8\uff01\uff01\uff01\u4e2d\u7535\u79d1\u65b0\u578b\u667a\u6167\u57ce\u5e02\u7814\u7a76\u9662\u6709\u9650\u516c\u53f8 2016-2017\u5e74\u6821\u56ed\u4eba\u624d\u62db\u8058\u7b80\u7ae0
p630
sg4
I9231800
sg5
V09\u670823\u65e518:00
p631
sg7
V\u674e\u56db\u5149304(\u5e02\u573a\u79d1/2191)
p632
sa(dp633
g2
V\u6c5f\u82cf\u94f6\u884c\u6df1\u5733\u5206\u884c2017\u5e74\u6821\u56ed\u62db\u8058\u7b80\u7ae0
p634
sg4
I9231800
sg5
V09\u670823\u65e518:00
p635
sg7
V\u5357\u533a\u674e\u56db\u5149210(\u5e02\u573a\u79d1/1145)
p636
sa(dp637
g2
V\u5e7f\u5dde\u7f8e\u7684\u5236\u51b7\u8bbe\u5907\u6709\u9650\u516c\u53f8\u62db\u8058
p638
sg4
I9231830
sg5
V09\u670823\u65e518:30
p639
sg7
V\u5357\u533a\u7ecf\u4fe1F8(\u5e02\u573a\u79d1/3618)
p640
sa(dp641
g2
V2017\u5e74\u4e2d\u56fd\u4e09\u661f\u6821\u56ed\u62db\u8058\u6b63\u5f0f\u542f\u52a8\uff01\uff01\uff01
p642
sg4
I9231830
sg5
V09\u670823\u65e518:30
p643
sg7
V\u5357\u533a\u4e09\u6559\u56db\u9636(\u5e02\u573a\u79d1/6490)
p644
sa(dp645
g2
V\u5e7f\u5dde\u7f8e\u7684\u5236\u51b7\u8bbe\u5907\u6709\u9650\u516c\u53f8\u62db\u8058
p646
sg4
I9231830
sg5
V09\u670823\u65e518:30
p647
sg7
V\u5357\u533a\u7ecf\u4fe1F8(\u5e02\u573a\u79d1/3618)
p648
sa(dp649
g2
V\u767e\u5ea62017\u6821\u56ed\u62db\u8058\u6b63\u5f0f\u542f\u52a8 \u2014\u2014\u5728\u8fd9\u91cc\uff0c\u505a\u81ea\u5df1\uff01
p650
sg4
I9231900
sg5
V09\u670823\u65e519:00
p651
sg7
V\u5357\u533a\u7ecf\u4fe1F9(\u5e02\u573a\u79d1/6770)
p652
sa(dp653
g2
V\u200b\u667a\u80fd\u65f6\u4ee3\uff0c\u9080\u4f60\u6765\u7535\u2014\u2014\u4e2d\u56fd\u7535\u4fe1\u5e7f\u4e1c\u516c\u53f82017\u5e74\u6821\u56ed\u62db\u8058\u6b63\u5f0f\u542f\u52a8\uff01
p654
sg4
I9231900
sg5
V09\u670823\u65e519:00
p655
sg7
V\u5357\u533a\u674e\u56db\u5149109(\u5e02\u573a\u79d1/1380)
p656
sa(dp657
g2
V\u4e2d\u56fd\u4e2d\u8f662017\u5c4a\u6821\u56ed\u62db\u80589\u6708\u4e13\u573a\u516c\u544a
p658
sg4
I9240830
sg5
V09\u670824\u65e508:30
p659
sg7
V\u5357\u5cad\u6821\u533a\u9038\u592b\u697cB211(\u5e02\u573a\u79d1/7784)
p660
sa(dp661
g2
V\u4e2d\u56fd\u4e2d\u8f662017\u5c4a\u6821\u56ed\u62db\u80589\u6708\u62db\u8058\u4f1a\uff08\u5357\u5cad\u4f53\u80b2\u9986\uff09
p662
sg4
I9240930
sg5
V09\u670824\u65e509:30
p663
sg7
V\u5357\u5cad\u4f53\u80b2\u9986(\u5e02\u573a\u79d1/2355)
p664
sa(dp665
g2
V\u4e2d\u5174\u8d22\u7ecf\u62db\u8058\u542f\u793a
p666
sg4
I9240930
sg5
V09\u670824\u65e509:30
p667
sg7
V\u4e1c\u8363\u5927\u53a6A306(\u5e02\u573a\u79d1/1879)
p668
sa(dp669
g2
V\u5317\u4eac\u67d0\u653f\u6cd5\u673a\u5173\u7684\u62db\u8058\u516c\u544a
p670
sg4
I9240930
sg5
V09\u670824\u65e509:30
p671
sg7
V\u5357\u533a\u674e\u56db\u5149\u697c104(\u5e02\u573a\u79d1/1875)
p672
sa(dp673
g2
V\u65e0\u9521\u6c5f\u5357\u8ba1\u7b97\u6280\u672f\u7814\u7a76\u6240\u6821\u56ed\u62db\u8058
p674
sg4
I9241330
sg5
V09\u670824\u65e513:30
p675
sg7
V\u7ecf\u4fe1C303(\u5e02\u573a\u79d1/1057)
p676
sa(dp677
g2
V\u4e07\u79d1\u96c6\u56e22017\u6821\u56ed\u62db\u8058\u957f\u6625\u7ad9
p678
sg4
I9241400
sg5
V09\u670824\u65e514:00
p679
sg7
V\u7ecf\u4fe1\u62a5\u544a\u5385(\u5e02\u573a\u79d1/15540)
p680
sa(dp681
g2
V\u79ef\u6210\u7535\u5b50\u80a1\u4efd\u6709\u9650\u516c\u53f82017\u6821\u56ed\u62db\u8058
p682
sg4
I9241530
sg5
V09\u670824\u65e515:30
p683
sg7
V\u5357\u533a\u674e\u56db\u5149206\u6559\u5ba4(\u5e02\u573a\u79d1/3225)
p684
sa(dp685
g2
V\u667a\u6167\u79ef\u6210\uff0c\u7cbe\u5f69\u4eba\u751f \u2014\u2014\u79ef\u6210\u7535\u5b50\u80a1\u4efd\u6709\u9650\u516c\u53f82017\u6821\u56ed\u62db\u8058
p686
sg4
I9241530
sg5
V09\u670824\u65e515:30
p687
sg7
V\u5f85\u5b9a(\u5e02\u573a\u79d1/1346)
p688
sa(dp689
g2
V\u62db\u5546\u94f6\u884c\u6df1\u5733\u5206\u884c2017\u5c4a\u79cb\u5b63\u6821\u56ed\u62db\u8058\u542f\u4e8b
p690
sg4
I9241830
sg5
V09\u670824\u65e518:30
p691
sg7
V\u5357\u533a\u674e\u56db\u5149\u697c109(\u5e02\u573a\u79d1/1789)
p692
sa(dp693
g2
V\u4e2d\u56fd\u519c\u4e1a\u94f6\u884c\u8f6f\u4ef6\u5f00\u53d1\u4e2d\u5fc32017\u5e74 \u6821\u56ed\u62db\u8058\u542f\u4e8b
p694
sg4
I9241830
sg5
V09\u670824\u65e518:30
p695
sg7
V\u5357\u533a\u674e\u56db\u5149304(\u5e02\u573a\u79d1/1423)
p696
sa(dp697
g2
V\u534e\u661f\u5149\u7535\u62db\u8058
p698
sg4
I9241830
sg5
V09\u670824\u65e518:30
p699
sg7
V\u5357\u533a
p700
sa(dp701
g2
V\u7b2c\u5341\u516d\u5c4a\u5168\u56fd\u9ad8\u6821\u6bd5\u4e1a\u751f\u6821\u56ed\u5de1\u56de\u62db\u8058\u4f1a\u66a8\u7f51\u7edc\u62db\u8058\u4f1a\u4e1c\u5317\u7ebf\u2014\u2014\u5409\u6797\u5927\u5b66\u7ad9
p702
sg4
I9250830
sg5
V09\u670825\u65e508:30
p703
sg7
V\u5409\u6797\u5927\u5b66\u524d\u536b\u5357\u533a\u6392\u7403\u9986(\u5e02\u573a\u79d1/3895)
p704
sa(dp705
g2
V\u6c88\u9633\u5e022016\u5e74\u62db\u624d\u5f15\u667a\u7cfb\u5217\u6d3b\u52a8
p706
sg4
I9251400
sg5
V09\u670825\u65e514:00
p707
sg7
V\u524d\u536b\u5357\u533a\u4f53\u80b2\u9986
p708
sa(dp709
g2
V\u534e\u7855\u79d1\u6280\uff08\u82cf\u5dde\uff09\u6709\u9650\u516c\u53f8  2017\u5c4a\u79cb\u5b63\u6821\u56ed\u62db\u8058\u7b80\u7ae0
p710
sg4
I9251530
sg5
V09\u670825\u65e515:30
p711
sg7
V\u674e\u56db\u5149107(\u5e02\u573a\u79d1/4612)
p712
sa(dp713
g2
V\u6c5f\u82cf\u4e9a\u5a01\u673a\u5e8a\u80a1\u4efd\u6709\u9650\u516c\u53f8
p714
sg4
I9251530
sg5
V09\u670825\u65e515:30
p715
sg7
V\u5357\u5cad\u9038\u592b\u697cA502(\u5e02\u573a\u79d1/1693)
p716
sa(dp717
g2
V\u6fb3\u6d77\u5730\u4ea72017\u50a8\u5907\u5e72\u90e8\u62db\u8058\uff08\u5730\u70b9\u6709\u6539\u52a8\uff01\uff01\uff01\uff01\uff01\uff09
p718
sg4
I9251800
sg5
V09\u670825\u65e518:00
p719
sg7
V\u5357\u533a\u674e\u56db\u5149304\uff08\u6fb3\u6d77\u5730\u4ea7\u5ba3\u8bb2\u4f1a\u65f6\u95f4\u5730\u70b9\u6709\u53d8\u52a8!!!!!!\uff09(\u5e02\u573a\u79d1/3084)
p720
sa(dp721
g2
V\u676d\u5dde\u6d77\u5eb7\u5a01\u89c6\u6570\u5b57\u6280\u672f\u80a1\u4efd\u6709\u9650\u516c\u53f8 2017\u5c4a\u6821\u56ed\u62db\u8058\u7b80\u7ae0
p722
sg4
I9251800
sg5
V09\u670825\u65e518:00
p723
sg7
V\u5357\u533a\u7ecf\u4fe1F8(\u5e02\u573a\u79d1/7185)
p724
sa(dp725
g2
V\u6fb3\u6d77\u5730\u4ea72017\u50a8\u5907\u5e72\u90e8\u62db\u8058\uff08\u5730\u70b9\u6709\u6539\u52a8\uff01\uff01\uff01\uff01\uff01\uff09
p726
sg4
I9251800
sg5
V09\u670825\u65e518:00
p727
sg7
V\u5357\u533a\u674e\u56db\u5149304\uff08\u6fb3\u6d77\u5730\u4ea7\u5ba3\u8bb2\u4f1a\u65f6\u95f4\u5730\u70b9\u6709\u53d8\u52a8!!!!!!\uff09(\u5e02\u573a\u79d1/3084)
p728
sa(dp729
g2
V\u5929\u7eb3\u514b\u4e2d\u56fd2017\u57f9\u8bad\u751f\u62db\u8058\u4fe1\u606f
p730
sg4
I9251830
sg5
V09\u670825\u65e518:30
p731
sg7
V\u5357\u5cad\u4e00\u6559101(\u5e02\u573a\u79d1/5813)
p732
sa(dp733
g2
V\u4f73\u58eb\u79d1\u62802017\u5c4a\u6821\u56ed\u62db\u8058\uff0c\u671f\u5f85\u60a8\u7684\u52a0\u5165
p734
sg4
I9251830
sg5
V09\u670825\u65e518:30
p735
sg7
V\u5357\u533a\u674e\u56db\u5149107(\u5e02\u573a\u79d1/3113)
p736
sa(dp737
g2
V\u8f6f\u901a\u52a8\u529b\u6280\u672f\u670d\u52a1\u6709\u9650\u516c\u53f8\uff08\u65b0\u589e\u7f51\u7533\u5730\u5740\uff09
p738
sg4
I9260900
sg5
V09\u670826\u65e509:00
p739
sg7
V\u5357\u533a\u674e\u56db\u5149104(\u5e02\u573a\u79d1/2605)
p740
sa(dp741
g2
V\u4e2d\u56fd\u7535\u5b50\u79d1\u6280\u96c6\u56e2\u516c\u53f8\u7b2c\u4e09\u5341\u516d\u7814\u7a76\u6240 \u6d59\u6c5f\u5609\u84dd\u6d77\u6d0b\u7535\u5b50\u6709\u9650\u516c\u53f8 \u4e13\u573a\u62db\u8058\u4f1a
p742
sg4
I9261000
sg5
V09\u670826\u65e510:00
p743
sg7
V\u5357\u533a\u4e09\u6559303(\u5e02\u573a\u79d1/2333)
p744
sa(dp745
g2
V\u4e2d\u5efa\u4e09\u5c40\u5357\u65b9\u516c\u53f8\u62db\u8058
p746
sg4
I9261000
sg5
V09\u670826\u65e510:00
p747
sg7
V\u5357\u533a\u674e\u56db\u5149302(\u5e02\u573a\u79d1/2794)
p748
sa(dp749
g2
V\u4e2d\u56fd\u8054\u5408\u7f51\u7edc\u901a\u4fe1\u96c6\u56e2\u6709\u9650\u516c\u53f82017\u5e74\u5ea6\u6821\u56ed\u62db\u8058\u516c\u544a
p750
sg4
I9261400
sg5
V09\u670826\u65e514:00
p751
sg7
V\u5357\u6e56\u6587\u5316\u6d3b\u52a8\u4e2d\u5fc3(\u5e02\u573a\u79d1/2143)
p752
sa(dp753
g2
V\u200b \u4e1c\u98ce\u6c7d\u8f66\u516c\u53f82017\u96c6\u56e2\u6821\u56ed\u62db\u8058\u957f\u6625\u5ba3\u8bb2\u4f1a
p754
sg4
I9261500
sg5
V09\u670826\u65e515:00
p755
sg7
V\u5357\u5cad\u6587\u5316\u6d3b\u52a8\u4e2d\u5fc3(\u5e02\u573a\u79d1/9458)
p756
sa(dp757
g2
V\u56fd\u5bb6\u7535\u7f51\u8bb8\u7ee7\u96c6\u56e2\u6821\u56ed\u62db\u8058\u516c\u544a
p758
sg4
I9261530
sg5
V09\u670826\u65e515:30
p759
sg7
V\u671d\u9633
p760
sa(dp761
g2
V\u6c47\u805a\u68a6\u60f3 \u667a\u9020\u4e0d\u51e1 \u2014\u2014 \u6c47\u5ddd\u6280\u672f2017\u6821\u56ed\u62db\u8058\u7b80\u7ae0
p762
sg4
I9261530
sg5
V09\u670826\u65e515:30
p763
sg7
V\u5357\u5cad\u4e00\u6559124(\u5e02\u573a\u79d1/3519)
p764
sa(dp765
g2
V\uff01\uff01\uff01\u65f6\u95f4\u5730\u70b9\u5747\u6709\u6539\u52a8\uff01\uff01\uff01\u4e2d\u8239\u91cd\u5de5\u7b2c\u4e03\u4e00\u516b\u7814\u7a76\u62402017\u5e74\u62db\u8058
p766
sg4
I9261530
sg5
V09\u670826\u65e515:30
p767
sg7
V\u5357\u5cad\u9038\u592bA102(\u5e02\u573a\u79d1/4702)
p768
sa(dp769
g2
V\u9002\u800c\u4e0d\u51e1 \u654f\u5b9e\u96c6\u56e22017\u6821\u56ed\u62db\u8058
p770
sg4
I9261530
sg5
V09\u670826\u65e515:30
p771
sg7
V\u5357\u5cad\u9038\u592b\u697cA411(\u5e02\u573a\u79d1/7865)
p772
sa(dp773
g2
V\u534e\u5b87\uff08\u5927\u8fde\uff09\u4fe1\u606f\u670d\u52a1\u6709\u9650\u516c\u53f8 \u6821\u56ed\u62db\u8058\uff08\u65f6\u95f4\u5df2\u66f4\u6539\uff09
p774
sg4
I9261530
sg5
V09\u670826\u65e515:30
p775
sg7
V\u5357\u533a\u674e\u56db\u5149109(\u5e02\u573a\u79d1/3758)
p776
sa(dp777
g2
V\u4e2d\u56fd\u7535\u5b50\u79d1\u6280\u7f51\u7edc\u4fe1\u606f\u5b89\u5168\u6709\u9650\u516c\u53f8 2017\u5e74\u65b0\u5458\u5de5\u6821\u56ed\u62db\u8058\u7b80\u7ae0
p778
sg4
I9261800
sg5
V09\u670826\u65e518:00
p779
sg7
V\uff08\u5730\u70b9\u6709\u6539\u52a8\uff01\uff01\uff01\uff09\u5357\u533a\u674e\u56db\u5149204(\u5e02\u573a\u79d1/3138)
p780
sa(dp781
g2
V\u6df1\u5733\u8d5b\u610f\u6cd5\u5fae\u7535\u5b50\u6709\u9650\u516c\u53f8
p782
sg4
I9261800
sg5
V09\u670826\u65e518:00
p783
sg7
V\u5357\u533a\u7ecf\u4fe1F8(\u5e02\u573a\u79d1/3095)
p784
sa(dp785
g2
V\u91d1\u57df\u68c0\u9a8c\u96c6\u56e2\u6821\u56ed\u62db\u8058
p786
sg4
I9261800
sg5
V09\u670826\u65e518:00
p787
sg7
V\u5357\u533a\u7ecf\u4fe1\u6559\u5b66\u697cC301(\u5e02\u573a\u79d1/2444)
p788
sa(dp789
g2
V\u4e2d\u8239\u91cd\u5de5\u7b2c\u4e03\u4e00\u4e00\u7814\u7a76\u6240\u62db\u8058\u4fe1\u606f
p790
sg4
I9261830
sg5
V09\u670826\u65e518:30
p791
sg7
V\uff01\uff01\uff01\u65f6\u95f4\u5730\u70b9\u5747\u6709\u6539\u52a8\uff01\uff01\uff01\u5357\u5cad\u4e00\u6559323\u4e2d\u8239\u91cd\u5de5\u7b2c\u4e03\u4e00\u4e00\u7814\u7a76\u6240\u62db\u8058\u4fe1\u606f(\u5e02\u573a\u79d1/5495)
p792
sa(dp793
g2
V\u5e7f\u6c7d\u4e30\u75302017\u5c4a\u6821\u56ed\u8def\u6f14\u4e0e\u62db\u8058\u5ba3\u8bb2\u4f1a
p794
sg4
I9261830
sg5
V09\u670826\u65e518:30
p795
sg7
V\u673a\u68b0\u5b66\u96628\u697c\u62a5\u544a\u5385(\u5e02\u573a\u79d1/4175)
p796
sa(dp797
g2
V\u6d66\u53d1\u94f6\u884c\u5927\u8fde\u5206\u884c2017\u5e74\u6821\u56ed\u62db\u8058
p798
sg4
I9261830
sg5
V09\u670826\u65e518:30
p799
sg7
V\u5357\u533a\u674e\u56db\u5149107(\u5e02\u573a\u79d1/2631)
p800
sa(dp801
g2
V\u4e2d\u56fd\u5e7f\u6838\u96c6\u56e22017\u6821\u56ed\u62db\u8058\u516c\u544a
p802
sg4
I9261900
sg5
V09\u670826\u65e519:00
p803
sg7
V\u5357\u533a
p804
sa(dp805
g2
V\u200b \u9526\u6e56\u65e5\u4e3d2017\u6821\u56ed\u62db\u8058\u7b80\u7ae0
p806
sg4
I9270930
sg5
V09\u670827\u65e509:30
p807
sg7
V\u6750\u6599\u99868\u697c\u62a5\u544a\u5385(\u5e02\u573a\u79d1/1215)
p808
sa(dp809
g2
V\u8c37\u6570\u79d1\u6280\u6821\u56ed\u62db\u8058
p810
sg4
I9271000
sg5
V09\u670827\u65e510:00
p811
sg7
V\u5357\u533aC101(\u5e02\u573a\u79d1/3082)
p812
sa(dp813
g2
V\u6c5f\u6dee\u6c7d\u8f66\u4e13\u573a\u62db\u8058\u4f1a\u542f\u4e8b
p814
sg4
I9271000
sg5
V09\u670827\u65e510:00
p815
sg7
V\u5357\u5cad\u4e00\u6559322(\u5e02\u573a\u79d1/3450)
p816
sa(dp817
g2
V\u4e1c\u98ce\u5c0f\u5eb7\u6c7d\u8f66\u6709\u9650\u516c\u53f8
p818
sg4
I9271000
sg5
V09\u670827\u65e510:00
p819
sg7
V\u5357\u5cad\u9038\u592b\u697cB416(\u5e02\u573a\u79d1/3122)
p820
sa(dp821
g2
V\u4e2d\u5173\u6751\u4eba\u624d\u7279\u533a\uff08\u4eac\u5916\uff09\u6821\u56ed\u62db\u8058\u4f1a
p822
sg4
I9271400
sg5
V09\u670827\u65e514:00
p823
sg7
V\u5357\u533a\u6392\u7403\u9986(\u5e02\u573a\u79d1/6333)
p824
sa(dp825
g2
V\u4e2d\u79d1\u521b\u8fbe\u8f6f\u4ef6\u80a1\u4efd\u6709\u9650\u516c\u53f8
p826
sg4
I9271800
sg5
V09\u670827\u65e518:00
p827
sg7
V\u5357\u533a\u674e\u56db\u5149208(\u5e02\u573a\u79d1/4007)
p828
sa(dp829
g2
V\u82cf\u5dde\u4e09\u661f\u7535\u5b50\u6db2\u6676\u663e\u793a\u79d1\u6280\u6709\u9650\u516c\u53f8
p830
sg4
I9271800
sg5
V09\u670827\u65e518:00
p831
sg7
V\u5357\u533a\u674e\u56db\u5149\u4e00\u9636(\u5e02\u573a\u79d1/3242)
p832
sa(dp833
g2
V\u65b9\u6b63\u7535\u5b502017\u5e74\u6821\u56ed\u62db\u8058\uff08\u5730\u70b9\u5df2\u66f4\u6539\uff09
p834
sg4
I9271800
sg5
V09\u670827\u65e518:00
p835
sg7
V\u5357\u533a\u674e\u56db\u5149204(\u5e02\u573a\u79d1/3023)
p836
sa(dp837
g2
V\u516c\u5b89\u90e8\u4ea4\u901a\u7ba1\u7406\u79d1\u5b66\u7814\u7a76\u6240 \u62db  \u8058  \u7b80  \u7ae0
p838
sg4
I9271800
sg5
V09\u670827\u65e518:00
p839
sg7
V\u5357\u533a\u674e\u56db\u5149109(\u5e02\u573a\u79d1/2574)
p840
sa(dp841
g2
V\u4e0a\u6d77\u5b89\u7855\u4fe1\u606f\u6280\u672f\u80a1\u4efd\u6709\u9650\u516c\u53f8\u62db\u8058
p842
sg4
I9271800
sg5
V09\u670827\u65e518:00
p843
sg7
V\u5357\u533a\u674e\u56db\u5149210(\u5e02\u573a\u79d1/2257)
p844
sa(dp845
g2
V\u6606\u5c71\u4e09\u661f\u7535\u673a\u62db\u8058\u4fe1\u606f
p846
sg4
I9271800
sg5
V09\u670827\u65e518:00
p847
sg7
V\u5357\u533a\u7ecf\u4fe1C103(\u5e02\u573a\u79d1/1672)
p848
sa(dp849
g2
V\u200b \u851a\u6765\u6c7d\u8f662017\u6821\u56ed\u62db\u8058
p850
sg4
I9271830
sg5
V09\u670827\u65e518:30
p851
sg7
V\u5357\u5cad\u4e00\u6559123(\u5e02\u573a\u79d1/4474)
p852
sa(dp853
g2
V\u4e2d\u56fd\u6c7d\u8f66\u6280\u672f\u7814\u7a76\u4e2d\u5fc3\u6c7d\u8f66\u8bd5\u9a8c\u7814\u7a76\u6240\uff08\u5929\u6d25\u6c7d\u8f66\u68c0\u6d4b\u4e2d\u5fc3\uff09
p854
sg4
I9271830
sg5
V09\u670827\u65e518:30
p855
sg7
V\u5357\u5cad
p856
sa(dp857
g2
V\u597d\u672a\u6765\u2014\u6d77\u8fb9\u76f4\u64ad2017\u6821\u56ed\u62db\u8058\uff08!!!\u73b0\u573a\u7b14\u8bd5!!!\uff09
p858
sg4
I9271830
sg5
V09\u670827\u65e518:30
p859
sg7
V\u5357\u533a\u7ecf\u4fe1F8(\u5e02\u573a\u79d1/5326)
p860
sa(dp861
g2
V\u201c\u68a6\u60f3\u9760\u5cb8\u201d\u62db\u5546\u94f6\u884c2017\u6821\u56ed\u62db\u8058\u516c\u544a
p862
sg4
I9271900
sg5
V09\u670827\u65e519:00
p863
sg7
V\u5357\u533a\u674e\u56db\u5149107(\u5e02\u573a\u79d1/2227)
p864
sa(dp865
g2
V\u4e2d\u5efa\u94a2\u6784\u6709\u9650\u516c\u53f82017\u5e74\u201c\u94a2\u6784\u4eba\u201d\u62db\u52df\u8ba1\u5212
p866
sg4
I9271900
sg5
V09\u670827\u65e519:00
p867
sg7
V\u671d\u9633\u6821\u533a\u6c34\u5de5\u697c518(\u5e02\u573a\u79d1/1662)
p868
sa(dp869
g2
V\u4e2d\u5efa\u94a2\u6784\u6709\u9650\u516c\u53f82017\u5e74\u201c\u94a2\u6784\u4eba\u201d\u62db\u52df\u8ba1\u5212
p870
sg4
I9271900
sg5
V09\u670827\u65e519:00
p871
sg7
V\u671d\u9633\u6821\u533a\u6c34\u5de5\u697c518(\u5e02\u573a\u79d1/1167)
p872
sa(dp873
g2
V\u54c8\u5c14\u6ee8\u5730\u94c1\u96c6\u56e2\u6709\u9650\u516c\u53f82016\u6821\u56ed\u62db\u8058\u516c\u544a
p874
sg4
I9280900
sg5
V09\u670828\u65e509:00
p875
sg7
V\u524d\u536b\u5357\u533a
p876
sa(dp877
g2
V\u4e2d\u56fd\u5efa\u8bbe\u94f6\u884c\u6821\u56ed\u62db\u8058\u5ba3\u8bb2\u4f1a
p878
sg4
I9280930
sg5
V09\u670828\u65e509:30
p879
sg7
V\u524d\u536b\u5357\u533a
p880
sa(dp881
g2
V\u91cd\u5e86\u5c0f\u5eb7\u5de5\u4e1a\u96c6\u56e2\u80a1\u4efd\u6709\u9650\u516c\u53f8
p882
sg4
I9281000
sg5
V09\u670828\u65e510:00
p883
sg7
V\u5357\u5cad\u4e00\u6559323(\u5e02\u573a\u79d1/3205)
p884
sa(dp885
g2
V\u6d59\u6c5f\u7701\u5efa\u5de5\u96c6\u56e2\u6709\u9650\u8d23\u4efb\u516c\u53f8
p886
sg4
I9281000
sg5
V09\u670828\u65e510:00
p887
sg7
V\u5357\u533a\u7ecf\u4fe1C205(\u5e02\u573a\u79d1/1634)
p888
sa(dp889
g2
V\u6c88\u9633\u83f2\u5c3c\u65af\u54a8\u8be2\u670d\u52a1\u6709\u9650\u516c\u53f8\u62db\u8058\u4fe1\u606f
p890
sg4
I9281330
sg5
V09\u670828\u65e513:30
p891
sg7
V\u5357\u533a\u7ecf\u4fe1C201(\u5e02\u573a\u79d1/1733)
p892
sa(dp893
g2
V\u534e\u6668\u6c7d\u8f66\u5de5\u7a0b\u7814\u7a76\u9662
p894
sg4
I9281330
sg5
V09\u670828\u65e513:30
p895
sg7
V\u5357\u5cad\u9038\u592bA511(\u5e02\u573a\u79d1/7226)
p896
sa(dp897
g2
V\u534e\u6668\u6c7d\u8f66\u96c6\u56e22017\u5e74\u6821\u56ed\u62db\u8058\u7b80\u7ae0
p898
sg4
I9281330
sg5
V09\u670828\u65e513:30
p899
sg7
V\u5357\u5cad\u9038\u592bA511(\u5e02\u573a\u79d1/2014)
p900
sa(dp901
g2
V2016\u5e74\u9655\u897f\u7701\u519b\u5de5\u3001\u5efa\u5de5\u3001\u80fd\u6e90\u7cfb\u7edf\u91cd\u70b9\u4f01\u4e8b\u4e1a\u5355\u4f4d \u5409\u6797\u5927\u5b66\u4e13\u573a\u62db\u8058\u4f1a
p902
sg4
I9281400
sg5
V09\u670828\u65e514:00
p903
sg7
V\u5357\u533a\u6392\u7403\u9986(\u5e02\u573a\u79d1/2974)
p904
sa(dp905
g2
V[\u7f6e\u9876]\u8fdb\u5316\u8bba \u2022 \u7ea6\u5929\u5065  \u8dc3\u9752\u6625 \u5929\u5065\u96c6\u56e22017\u5e74\u6821\u56ed\u62db\u8058\u7b80\u7ae0
p906
sg4
I9281530
sg5
V09\u670828\u65e515:30
p907
sg7
V\u674e\u56db\u5149206(\u5e02\u573a\u79d1/3466)
p908
sa(dp909
g2
V[\u7f6e\u9876]\u6df1\u5733\u5e02\u50b2\u57fa\u7535\u5b50\u5546\u52a1\u80a1\u4efd\u6709\u9650\u516c\u53f8\u62db\u8058
p910
sg4
I9281800
sg5
V09\u670828\u65e518:00
p911
sg7
V\u5357\u533a\u674e\u56db\u5149304(\u5e02\u573a\u79d1/1856)
p912
sa(dp913
g2
V[\u7f6e\u9876]\u6c88\u9633\u957f\u6c5f\u6e90\u79d1\u6280\u53d1\u5c55\u6709\u9650\u516c\u53f8
p914
sg4
I9281800
sg5
V09\u670828\u65e518:00
p915
sg7
V\u7ecf\u4fe1C205(\u5e02\u573a\u79d1/3267)
p916
sa(dp917
g2
V\u200b \u9a6c\u745e\u52292017\u6821\u56ed\u62db\u8058\u706b\u70ed\u542f\u52a8
p918
sg4
I9281800
sg5
V09\u670828\u65e518:00
p919
sg7
V\u5357\u5cad\u9038\u592b\u697cB211(\u5e02\u573a\u79d1/2606)
p920
sa(dp921
g2
V\u4e2d\u56fd\u4e2d\u8f66\u65e5\u7acb\u6c38\u6d4e\u7535\u6c14\u8bbe\u5907\uff08\u897f\u5b89\uff09\u6709\u9650\u516c\u53f8\u5ba3\u8bb2
p922
sg4
I9281830
sg5
V09\u670828\u65e518:30
p923
sg7
V\u5357\u533a\u674e\u56db\u5149107(\u5e02\u573a\u79d1/2541)
p924
sa(dp925
g2
VABC\u6559\u80b2\u96c6\u56e2\u62db\u8058
p926
sg4
I9281830
sg5
V09\u670828\u65e518:30
p927
sg7
V\u5357\u533a\u7ecf\u4fe1C201(\u5e02\u573a\u79d1/2430)
p928
sa(dp929
g2
V\u82cf\u5dde\u4e09\u661f\u663e\u793a\u6709\u9650\u516c\u53f8\u5ba3\u8bb2
p930
sg4
I9281830
sg5
V09\u670828\u65e518:30
p931
sg7
V\u5357\u533a\u7ecf\u4fe1C105(\u5e02\u573a\u79d1/2399)
p932
sa(dp933
g2
V\u200b \u8010\u4e16\u72792017\u79cb\u5b63\u6821\u56ed\u62db\u8058\u7b80\u7ae0
p934
sg4
I9281830
sg5
V09\u670828\u65e518:30
p935
sg7
V\u9038\u592b\u697cA411(\u5e02\u573a\u79d1/4025)
p936
sa(dp937
g2
V\u4e0a\u6d77\u4e07\u9769\u59cb\u5e94\u7528\u8f6f\u4ef6\u6709\u9650\u516c\u53f8\uff08Works Applications) \u8f6f\u4ef6\u5f00\u53d1\u5de5\u7a0b\u5e08 2017\u62db\u8058\u7b80\u7ae0
p938
sg4
I9281900
sg5
V09\u670828\u65e519:00
p939
sg7
V\u5357\u533a\u674e\u56db\u5149109(\u5e02\u573a\u79d1/1405)
p940
sa(dp941
g2
V\u9752\u5c9b\u9f0e\u4fe1\u901a\u8baf\u80a1\u4efd\u6709\u9650\u516c\u53f82017\u5e74\u62db\u8058\u7b80\u7ae0
p942
sg4
I9291530
sg5
V09\u670829\u65e515:30
p943
sg7
V\u5357\u533a\u674e\u56db\u5149302(\u5e02\u573a\u79d1/4024)
p944
sa(dp945
g2
V\u82cf\u5dde\u5de5\u4e1a\u56ed\u533a\u6d4b\u7ed8\u5730\u7406\u4fe1\u606f\u6709\u9650\u516c\u53f8 \u62db \u8058 \u7b80 \u7ae0
p946
sg4
I9291830
sg5
V09\u670829\u65e518:30
p947
sg7
V\u5357\u533a\u674e\u56db\u5149310(\u5e02\u573a\u79d1/1514)
p948
sa(dp949
g2
V\u4e2d\u56fd\u4eba\u5bff\u5357\u5173\u652f\u516c\u53f8\u62db\u8058\u7b80\u7ae0
p950
sg4
I9301000
sg5
V09\u670830\u65e510:00
p951
sg7
V\u5357\u533a\u7ecf\u4fe1C109(\u5e02\u573a\u79d1/1489)
p952
sa(dp953
g2
V\u5317\u4eac\u67d0\u56fd\u5bb6\u90e8\u59d4
p954
sg4
I10081400
sg5
V10\u670808\u65e514:00
p955
sg7
V\u5357\u533a\u674e\u56db\u5149206(\u5e02\u573a\u79d1/854)
p956
sa(dp957
g2
V\u4e2d\u56fd\u65e5\u62a5\u793e2017\u5e74\u5409\u6797\u5927\u5b66\u6821\u56ed\u62db\u8058
p958
sg4
I10090800
sg5
V10\u670809\u65e508:00
p959
sg7
V\u5357\u533a\u674e\u56db\u5149\u697c309(\u5e02\u573a\u79d1/830)
p960
sa(dp961
g2
V[\u7f6e\u9876]\u4e2d\u592e\u673a\u5173B\u5c40
p962
sg4
I10090900
sg5
V10\u670809\u65e509:00
p963
sg7
V\u5357\u533a\u9038\u592b602\u3001605(\u5e02\u573a\u79d1/903)
p964
sa(dp965
g2
V[\u7f6e\u9876]\u56fd\u5bb6\u67d0\u90e8\u59d4\u62db\u8058
p966
sg4
I10090930
sg5
V10\u670809\u65e509:30
p967
sg7
V\u5357\u533a\u7530\u5bb6\u70b3B\u5ea7\u5c31\u4e1a\u4e2d\u5fc3\u4f1a\u8bae\u5ba4
p968
sa(dp969
g2
V[\u7f6e\u9876]\u4e2d\u592e\u67d0\u673a\u5173A\u5c40
p970
sg4
I10091000
sg5
V10\u670809\u65e510:00
p971
sg7
V\u5357\u533a\u9038\u592b\u697c302\u3001305(\u5e02\u573a\u79d1/2857)
p972
sa(dp973
g2
V\u5317\u4eac\u57ce\u5efa\u8bbe\u8ba1\u53d1\u5c55\u96c6\u56e2\u80a1\u4efd\u6709\u9650\u516c\u53f8\uff08\u957f\u6625\u5206\u9662\uff09
p974
sg4
I10091000
sg5
V10\u670809\u65e510:00
p975
sg7
V\u5f85\u5b9a(\u5e02\u573a\u79d1/556)
p976
sa(dp977
g2
V\u957f\u6625\u65af\u7eb3\u6b27\u8f6f\u4ef6\u6709\u9650\u516c\u53f8
p978
sg4
I10091330
sg5
V10\u670809\u65e513:30
p979
sg7
V\u5357\u533a\u7ecf\u4fe1C111(\u5e02\u573a\u79d1/1141)
p980
sa(dp981
g2
V\u57fa\u6069\u58eb\uff08KEYENCE\uff09-2017\u6821\u56ed\u62db\u8058
p982
sg4
I10091330
sg5
V10\u670809\u65e513:30
p983
sg7
V\u5357\u533a\u674e\u56db\u5149\u4e00\u9636(\u5e02\u573a\u79d1/1888)
p984
sa(dp985
g2
VTIANMA\u5929\u9a6c2017\u5e74\uff02T-MAN\uff02\u6821\u56ed\u62db\u8058
p986
sg4
I10091330
sg5
V10\u670809\u65e513:30
p987
sg7
V\u524d\u536b\u5357\u533a\u7ecf\u4fe1\u6559\u5b66\u697cF5(\u5e02\u573a\u79d1/1547)
p988
sa(dp989
g2
V\u4eac\u5317\u65b9\u4fe1\u606f\u6280\u672f\u80a1\u4efd\u6709\u9650\u516c\u53f8 2017\u6821\u56ed\u62db\u8058\u7b80\u7ae0
p990
sg4
I10091330
sg5
V10\u670809\u65e513:30
p991
sg7
V\u5f85\u5b9a(\u5e02\u573a\u79d1/1330)
p992
sa(dp993
g2
V[\u7f6e\u9876]\uff08\u5730\u70b9\u66f4\u6539\uff01\uff09\u56fd\u5bb6\u77e5\u8bc6\u4ea7\u6743\u5c40\u4e13\u5229\u5c40 \u4e13\u5229\u5ba1\u67e5\u534f\u4f5c\u4eac\u5916\u4e2d\u5fc32017\u6821\u56ed\u62db\u8058
p994
sg4
I10091400
sg5
V10\u670809\u65e514:00
p995
sg7
V\u674e\u56db\u5149208(\u5e02\u573a\u79d1/3664)
p996
sa(dp997
g2
V\u6d59\u6c5f\u4ea4\u5de5\u96c6\u56e2\u62db\u8058\u4fe1\u606f
p998
sg4
I10091530
sg5
V10\u670809\u65e515:30
p999
sg7
V\u5f85\u5b9a(\u5e02\u573a\u79d1/939)
p1000
sa(dp1001
g2
V\u897f\u5b89\u4e0a\u4e0b\u683c\u4e92\u8054\u79d1\u6280\u6709\u9650\u516c\u53f8\u62db\u8058\u7b80\u7ae0
p1002
sg4
I10091800
sg5
V10\u670809\u65e518:00
p1003
sg7
V\u5357\u533a\u7ecf\u4fe1c101(\u5e02\u573a\u79d1/347)
p1004
sa(dp1005
g2
V\u6e56\u5317\u6208\u78a7\u8fe6\u5149\u7535\u79d1\u6280\u80a1\u4efd\u6709\u9650\u516c\u53f8\u62db\u8058\u4fe1\u606f
p1006
sg4
I10100900
sg5
V10\u670810\u65e509:00
p1007
sg7
V\u671d\u9633\u6821\u533a\u6c34\u5de5\u697c512\u5ba4(\u5e02\u573a\u79d1/248)
p1008
sa(dp1009
g2
V\u9e3f\u8fbe\u5174\u4e1a\u96c6\u56e2\u62db\u8058\u7b80\u7ae0
p1010
sg4
I10101330
sg5
V10\u670810\u65e513:30
p1011
sg7
V\u5357\u533a\u7ecf\u4fe1C305(\u5e02\u573a\u79d1/735)
p1012
sa(dp1013
g2
V\u5e7f\u4e1c\u7701\u7535\u4fe1\u89c4\u5212\u8bbe\u8ba1\u9662\u6709\u9650\u516c\u53f8 \u2014\u6c88\u9633\u5206\u516c\u53f8\u6821\u56ed\u62db\u8058
p1014
sg4
I10101330
sg5
V10\u670810\u65e513:30
p1015
sg7
V\u5357\u6e56\u6821\u533a\u4e09\u6559205\u6559\u5ba4(\u5e02\u573a\u79d1/501)
p1016
sa(dp1017
g2
V\u6cd5\u58eb\u7279\u96c6\u56e2\u516c\u53f82017\u5c4a\u6821\u56ed\u62db\u8058
p1018
sg4
I10101530
sg5
V10\u670810\u65e515:30
p1019
sg7
V\u5357\u5cad\u4e00\u6559124(\u5e02\u573a\u79d1/1063)
p1020
sa(dp1021
g2
V\u6df1\u5733\u5e02\u71c3\u6c14\u96c6\u56e2
p1022
sg4
I10101530
sg5
V10\u670810\u65e515:30
p1023
sg7
V\u5357\u533a\u7ecf\u4fe1c109\uff0cc111(\u5e02\u573a\u79d1/525)
p1024
sa(dp1025
g2
V\u5b81\u590f\u5171\u4eab\u96c6\u56e2\u516c\u53f82016\u5e7410\u6708\u4efd\u6821\u56ed\u62db\u8058\u7b80\u7ae0
p1026
sg4
I10101530
sg5
V10\u670810\u65e515:30
p1027
sg7
V\u5357\u5cad\u6821\u533a
p1028
sa(dp1029
g2
V\u5927\u901a\u8bc1\u52382017\u5c4a\u6bd5\u4e1a\u751f\u6821\u56ed\u62db\u8058
p1030
sg4
I10101800
sg5
V10\u670810\u65e518:00
p1031
sg7
V\u5357\u533a\u674e\u56db\u5149213\u6559\u5ba4(\u5e02\u573a\u79d1/762)
p1032
sa(dp1033
g2
V\u82cf\u5dde\u91d1\u9f99\u2022\u6d77\u683c\u5ba2\u8f662017\u5c4a\u9ad8\u6821\u62db\u8058
p1034
sg4
I10101800
sg5
V10\u670810\u65e518:00
p1035
sg7
V\u5357\u5cad\u6821\u533a\u7b2c\u4e00\u6559\u5b66\u697c123(\u5e02\u573a\u79d1/973)
p1036
sa(dp1037
g2
V\u3010\u7eff\u76df\u79d1\u6280\u30112017\u5e74\u79cb\u5b63\u6821\u56ed\u62db\u8058\u2014\u2014\u4e00\u4e2a\u5173\u4e8e\u7f51\u7edc\u5b89\u5168\u7684\u79d8\u5bc6\uff01
p1038
sg4
I10101800
sg5
V10\u670810\u65e518:00
p1039
sg7
V\u5357\u533a\u674e\u56db\u5149204(\u5e02\u573a\u79d1/884)
p1040
sa(dp1041
g2
V\u6c49\u5f97\u4fe1\u606f 2017\u6821\u56ed\u62db\u8058
p1042
sg4
I10101800
sg5
V10\u670810\u65e518:00
p1043
sg7
V\u5357\u533a\u674e\u56db\u5149302(\u5e02\u573a\u79d1/808)
p1044
sa(dp1045
g2
V\u5317\u4eac\u9f0e\u4e00\u901a\u8fdc\u79d1\u6280\u53d1\u5c55\u6709\u9650\u516c\u53f8\u6821\u56ed\u62db\u8058
p1046
sg4
I10101800
sg5
V10\u670810\u65e518:00
p1047
sg7
V\u5357\u533a\u7ecf\u4fe1\u6559\u5b66\u697cC303(\u5e02\u573a\u79d1/513)
p1048
sa(dp1049
g2
V\u5317\u4eac\u4e1c\u65b9\u56fd\u4fe1\u79d1\u6280
p1050
sg4
I10101830
sg5
V10\u670810\u65e518:30
p1051
sg7
V\u5f85\u5b9a(\u5e02\u573a\u79d1/804)
p1052
sa(dp1053
g2
V\u5b8f\u8fdc\u65f6\u4ee3\u4f53\u80b2\u4ea7\u4e1a\u96c6\u56e2\u62db\u8058
p1054
sg4
I10101830
sg5
V10\u670810\u65e518:30
p1055
sg7
V\u5357\u533a\u7ecf\u4fe1C105(\u5e02\u573a\u79d1/346)
p1056
sa(dp1057
g2
V\u4e30\u7530\u6c7d\u8f66\u6280\u672f\u4e2d\u5fc3\uff08\u4e2d\u56fd\uff09\u6709\u9650\u516c\u53f8 2017\u5e74\u6821\u56ed\u62db\u8058
p1058
sg4
I10101830
sg5
V10\u670810\u65e518:30
p1059
sg7
V\u5357\u5cad\u4e00\u6559202(\u5e02\u573a\u79d1/2329)
p1060
sa(dp1061
g2
V\u5b81\u6ce2\u9ad8\u677e\u7535\u5b50\u6709\u9650\u516c\u53f8\u62db\u8058
p1062
sg4
I10110830
sg5
V10\u670811\u65e508:30
p1063
sg7
V\u5357\u533a\u7ecf\u4fe1E107(\u5e02\u573a\u79d1/400)
p1064
sa(dp1065
g2
V[\u7f6e\u9876]\u4e2d\u4ea4\u758f\u6d5a\uff08\u96c6\u56e2\uff09\u80a1\u4efd\u6709\u9650\u516c\u53f8 2016\u5e74\u6821\u56ed\u62db\u8058
p1066
sg4
I10110900
sg5
V10\u670811\u65e509:00
p1067
sg7
V\u7ecf\u4fe1\u62a5\u544a\u5385(\u5e02\u573a\u79d1/2261)
p1068
sa(dp1069
g2
V\u200b \u957f\u6625\u901a\u5b87\u6cf0\u514b\u4fe1\u606f\u6280\u672f\u6709\u9650\u516c\u53f8\u62db\u8058\u7b80\u7ae0
p1070
sg4
I10111000
sg5
V10\u670811\u65e510:00
p1071
sg7
V\u5357\u6e56\u6821\u533a\u4e09\u6559501\u6559\u5ba4(\u5e02\u573a\u79d1/291)
p1072
sa(dp1073
g2
V\u200b \u5929\u6d25\u6c7d\u8f66\u6a21\u5177\u80a1\u4efd\u6709\u9650\u516c\u53f8\u62db\u8058\u7b80\u7ae0
p1074
sg4
I10111000
sg5
V10\u670811\u65e510:00
p1075
sg7
V\u5357\u5cad\u6821\u533a
p1076
sa(dp1077
g2
V\u5317\u4eac\u957f\u57ce\u534e\u51a0\u6c7d\u8f66\u79d1\u6280\u80a1\u4efd\u6709\u9650\u516c\u53f8\u6821\u56ed\u62db\u8058
p1078
sg4
I10111300
sg5
V10\u670811\u65e513:00
p1079
sg7
V\u5357\u5cad\u9038\u592bA202(\u5e02\u573a\u79d1/476)
p1080
sa(dp1081
g2
V[\u7f6e\u9876]\u975e\u51e1\u68a6\u60f3  \u5929\u7ffc\u542f\u822a--\u4e2d\u56fd\u7535\u4fe1\u96c6\u56e2\u516c\u53f82017\u5e74\u6821\u56ed\u62db\u8058\u516c\u544a
p1082
sg4
I10111330
sg5
V10\u670811\u65e513:30
p1083
sg7
V\u5357\u533a\u7ecf\u4fe1\u62a5\u544a\u5385(\u5e02\u573a\u79d1/59)
p1084
sa(dp1085
g2
V\u7535\u88c5\u96c6\u56e22017\u5e74\u5ea6\u6821\u56ed\u62db\u8058
p1086
sg4
I10111330
sg5
V10\u670811\u65e513:30
p1087
sg7
V\u5357\u5cad\u9038\u592b\u697cB110(\u5e02\u573a\u79d1/1293)
p1088
sa(dp1089
g2
V[\u7f6e\u9876]\u6052\u5927\u96c6\u56e22017\u6821\u56ed\u62db\u8058
p1090
sg4
I10111400
sg5
V10\u670811\u65e514:00
p1091
sg7
V\u5357\u5cad\u6587\u5316\u6d3b\u52a8\u4e2d\u5fc3(\u5e02\u573a\u79d1/3126)
p1092
sa(dp1093
g2
V\u4e2d\u56fd\u90ae\u653f\u50a8\u84c4\u94f6\u884c2017\u5e74\u6821\u56ed\u62db\u8058\u516c\u544a
p1094
sg4
I10111400
sg5
V10\u670811\u65e514:00
p1095
sg7
V\u5357\u533a\u5f85\u5b9a(\u5e02\u573a\u79d1/685)
p1096
sa(dp1097
g2
V\u76ca\u5b66\u5802\u62db\u8058\u7b80\u7ae0
p1098
sg4
I10111530
sg5
V10\u670811\u65e515:30
p1099
sg7
V\u5357\u533a\u7ecf\u4fe1c301(\u5e02\u573a\u79d1/356)
p1100
sa(dp1101
g2
V2017\u9510\u6377\u7f51\u7edc\u6821\u56ed\u62db\u8058
p1102
sg4
I10111530
sg5
V10\u670811\u65e515:30
p1103
sg7
V\u5357\u533a\u674e\u56db\u5149109(\u5e02\u573a\u79d1/1865)
p1104
sa(dp1105
g2
V\u5317\u4eac\u5b87\u4fe1\u79d1\u6280\u96c6\u56e2\u80a1\u4efd\u6709\u9650\u516c\u53f82017\u6821\u56ed\u62db\u8058
p1106
sg4
I10111530
sg5
V10\u670811\u65e515:30
p1107
sg7
V\u5357\u533a\u674e\u56db\u5149304(\u5e02\u573a\u79d1/1170)
p1108
sa(dp1109
g2
V\u4e0a\u6d77\u6d66\u4e1c\u53d1\u5c55\u94f6\u884c\u80a1\u4efd\u6709\u9650\u516c\u53f8\u6c88\u9633\u5206\u884c\u62db\u8058
p1110
sg4
I10111800
sg5
V10\u670811\u65e518:00
p1111
sg7
V\u5357\u533a\u5f85\u5b9a(\u5e02\u573a\u79d1/27)
p1112
sa(dp1113
g2
V\u5bf0\u5b87\u6167\u65c5\uff08\u5317\u4eac\uff09\u79d1\u6280\u6709\u9650\u516c\u53f8\uff08\u7a77\u6e38\u7f51\uff09\u6821\u56ed\u62db\u8058
p1114
sg4
I10111800
sg5
V10\u670811\u65e518:00
p1115
sg7
V\u5357\u533a\u674e\u56db\u5149302(\u5e02\u573a\u79d1/458)
p1116
sa(dp1117
g2
V\u97f3\u6cf0\u601d\u8ba1\u7b97\u673a
p1118
sg4
I10111830
sg5
V10\u670811\u65e518:30
p1119
sg7
V\u5f85\u5b9a(\u5e02\u573a\u79d1/307)
p1120
sa(dp1121
g2
V\u4e09\u661f\u7535\u673a\u4eba\u624d\u57f9\u517b\u8ba1\u5212
p1122
sg4
I10111830
sg5
V10\u670811\u65e518:30
p1123
sg7
V\u7ecf\u4fe1C101(\u5e02\u573a\u79d1/176)
p1124
sa(dp1125
g2
V\u4e0a\u6d77\u7535\u9a71\u52a8\u80a1\u4efd\u6709\u9650\u516c\u53f8\u62db\u8058\u542f\u4e8b
p1126
sg4
I10120800
sg5
V10\u670812\u65e508:00
p1127
sg7
V\u9038\u592b\u697cA501(\u5e02\u573a\u79d1/604)
p1128
sa(dp1129
g2
V\u4e2d\u56fd\u94c1\u5efa\u91cd\u5de5\u96c6\u56e22017\u5c4a\u6821\u56ed\u62db\u8058
p1130
sg4
I10121000
sg5
V10\u670812\u65e510:00
p1131
sg7
V\u5357\u5cad\u9038\u592bB110(\u5e02\u573a\u79d1/1111)
p1132
sa(dp1133
g2
V\u5317\u4eac\u5e02\u56fd\u5bb6\u7a0e\u52a1\u5c40\u62db\u8058
p1134
sg4
I10121000
sg5
V10\u670812\u65e510:00
p1135
sg7
V\u5357\u533a\u674e\u56db\u5149302(\u5e02\u573a\u79d1/335)
p1136
sa(dp1137
g2
V\u4e2d\u56fd\u4e2d\u8f66\u682a\u6d32\u7535\u529b\u673a\u8f66\u6709\u9650\u516c\u53f82017\u6821\u56ed\u62db\u8058
p1138
sg4
I10121330
sg5
V10\u670812\u65e513:30
p1139
sg7
V\u5357\u5cad\u6821\u533a\u9038\u592b\u697cA102(\u5e02\u573a\u79d1/1013)
p1140
sa(dp1141
g2
V\u6c34\u5229\u6c34\u7535\u7b2c\u5341\u56db\u5de5\u7a0b\u5c40\u6709\u9650\u516c\u53f8  2017\u5c4a\u9ad8\u6821\u6bd5\u4e1a\u751f\u62db\u8058\u516c\u544a
p1142
sg4
I10121330
sg5
V10\u670812\u65e513:30
p1143
sg7
V\u5357\u533a\u7ecf\u4fe1C201(\u5e02\u573a\u79d1/877)
p1144
sa(dp1145
g2
V\u957f\u6625\u7406\u60f3\u79d1\u6280\u4fe1\u606f\u6709\u9650\u516c\u53f8\u6821\u56ed\u62db\u8058
p1146
sg4
I10121330
sg5
V10\u670812\u65e513:30
p1147
sg7
V\u5357\u533a\u7ecf\u4fe1C107(\u5e02\u573a\u79d1/292)
p1148
sa(dp1149
g2
V\u62db\u5546\u8bc1\u5238\u6821\u56ed\u62db\u8058
p1150
sg4
I10121530
sg5
V10\u670812\u65e515:30
p1151
sg7
V\u5357\u533a\u674e\u56db\u5149206(\u5e02\u573a\u79d1/380)
p1152
sa(dp1153
g2
V\u536b\u58eb\u901a2017\u5c4a\u6821\u56ed\u62db\u8058\u7b80\u7ae0
p1154
sg4
I10121530
sg5
V10\u670812\u65e515:30
p1155
sg7
V\u5357\u533a\u674e\u56db\u5149109(\u5e02\u573a\u79d1/20)
p1156
sa(dp1157
g2
V\u5927\u548c\u4e8b\u52a1\u5904\u7406\u4e2d\u5fc3\uff08\u5927\u8fde\uff09\u6709\u9650\u516c\u53f8
p1158
sg4
I10121530
sg5
V10\u670812\u65e515:30
p1159
sg7
V\u5357\u533a\u7ecf\u4fe1C311(\u5e02\u573a\u79d1/108)
p1160
sa(dp1161
g2
V[\u7f6e\u9876]\u200b \u4e2d\u56fd\u8054\u5408\u5de5\u7a0b\u516c\u53f82017\u5c4a\u6821\u56ed\u62db\u8058
p1162
sg4
I10121800
sg5
V10\u670812\u65e518:00
p1163
sg7
V\u674e\u56db\u5149107(\u5e02\u573a\u79d1/1533)
p1164
sa(dp1165
g2
V\u201c\u9886\u822a\u8005\u201d\u8c61\u5c7f2017\u5c4a\u5e94\u5c4a\u751f\u6821\u56ed\u62db\u8058
p1166
sg4
I10121800
sg5
V10\u670812\u65e518:00
p1167
sg7
V\u5f85\u5b9a(\u5e02\u573a\u79d1/568)
p1168
sa(dp1169
g2
V\u200b\u4e0a\u6d77\u79d1\u4e16\u8fbe\u2014\u534e\u9633\u6c7d\u8f66\u7535\u5668\u6709\u9650\u516c\u53f8
p1170
sg4
I10121830
sg5
V10\u670812\u65e518:30
p1171
sg7
V\u5357\u533a\u674e\u56db\u5149214(\u5e02\u573a\u79d1/329)
p1172
sa(dp1173
g2
V[\u7f6e\u9876]\u4e2d\u56fd\u7535\u5b50\u79d1\u6280\u96c6\u56e2\u516c\u53f8\u7b2c\u56db\u5341\u3001\u7b2c\u56db\u5341\u4e00\u7814\u7a76\u6240\u62db\u8058
p1174
sg4
I10131000
sg5
V10\u670813\u65e510:00
p1175
sg7
V\u5357\u533a\u674e\u56db\u5149208(\u5e02\u573a\u79d1/891)
p1176
sa(dp1177
g2
V\u5927\u8fde\u534e\u4fe1\u6821\u56ed\u62db\u8058
p1178
sg4
I10131000
sg5
V10\u670813\u65e510:00
p1179
sg7
V\u5357\u533a\u7ecf\u4fe12\u9636(\u5e02\u573a\u79d1/590)
p1180
sa(dp1181
g2
V\u6c88\u9633\u65b0\u677e\u673a\u5668\u4eba\u81ea\u52a8\u5316\u80a1\u4efd\u6709\u9650\u516c\u53f8
p1182
sg4
I10131000
sg5
V10\u670813\u65e510:00
p1183
sg7
V\u4eff\u751f\u697c\u62a5\u544a\u5385(\u5e02\u573a\u79d1/901)
p1184
sa(dp1185
g2
V\u4e2d\u8f6f\u56fd\u9645
p1186
sg4
I10131330
sg5
V10\u670813\u65e513:30
p1187
sg7
V\u5357\u533a\u7ecf\u4fe1F5(\u5e02\u573a\u79d1/647)
p1188
sa(dp1189
g2
V2017\u5e74\u5e7f\u4e1c\u8054\u901a\u6821\u56ed\u62db\u8058
p1190
sg4
I10131330
sg5
V10\u670813\u65e513:30
p1191
sg7
V\u5357\u533a\u674e\u56db\u5149206\u6559\u5ba4(\u5e02\u573a\u79d1/236)
p1192
sa(dp1193
g2
V\u6df1\u5733\u57a6\u62d3\u6d41\u4f53\u63a7\u5236\u6709\u9650\u516c\u53f8
p1194
sg4
I10131330
sg5
V10\u670813\u65e513:30
p1195
sg7
V\u5357\u5cad\u6821\u533a
p1196
sa(dp1197
g2
V\u963f\u66fc\u8fbe\u8fdb\u51fa\u53e3\u6709\u9650\u516c\u53f8
p1198
sg4
I10131330
sg5
V10\u670813\u65e513:30
p1199
sg7
V\u5357\u533a\u5f85\u5b9a(\u5e02\u573a\u79d1/359)
p1200
sa(dp1201
g2
V\u4e49\u4e4c\u963f\u66fc\u8fbe\u8fdb\u51fa\u53e3\u6709\u9650\u516c\u53f82017\u62db\u8058\u4fe1\u606f
p1202
sg4
I10131330
sg5
V10\u670813\u65e513:30
p1203
sg7
V\u5357\u533a\u7ecf\u4fe1C105(\u5e02\u573a\u79d1/109)
p1204
sa(dp1205
g2
V\u4e0a\u6d77\u548c\u8f89\u5149\u75352017\u6821\u56ed\u62db\u8058
p1206
sg4
I10131500
sg5
V10\u670813\u65e515:00
p1207
sg7
V\u5357\u533a\u674e\u56db\u5149109(\u5e02\u573a\u79d1/591)
p1208
sa(dp1209
g2
V\u5b89\u5fbd\u53c9\u8f66\u96c6\u56e2\u6709\u9650\u8d23\u4efb\u516c\u53f8\u66a8\u5b89\u5fbd\u5408\u529b\u80a1\u4efd\u6709\u9650\u516c\u53f8
p1210
sg4
I10131530
sg5
V10\u670813\u65e515:30
p1211
sg7
V\u5357\u5cad\u9038\u592bA507(\u5e02\u573a\u79d1/117)
p1212
sa(dp1213
g2
V\u200b \u201c\u53d6\u9510\u7eb3\u65b0\uff0c\u4e0e\u4f60\u540c\u884c\u201d \u5e7f\u7269\u5730\u4ea7\u96c6\u56e22017\u5c4a\u6821\u56ed\u62db\u8058
p1214
sg4
I10131530
sg5
V10\u670813\u65e515:30
p1215
sg7
V\u5357\u533a\u674e\u56db\u5149304(\u5e02\u573a\u79d1/22)
p1216
sa(dp1217
g2
V\u5c71\u4e1c\u4e94\u5f81\u96c6\u56e2\u62db\u8058\u7b80\u7ae0
p1218
sg4
I10131800
sg5
V10\u670813\u65e518:00
p1219
sg7
V\u5357\u5cad\u9038\u592bA502(\u5e02\u573a\u79d1/718)
p1220
sa(dp1221
g2
V\u65b0\u5965\u7279\uff08\u5317\u4eac\uff09\u89c6\u9891\u6280\u672f\u6709\u9650\u516c\u53f8\u62db\u8058
p1222
sg4
I10131800
sg5
V10\u670813\u65e518:00
p1223
sg7
V\u5357\u533a\u674e\u56db\u5149208(\u5e02\u573a\u79d1/260)
p1224
sa(dp1225
g2
V\u68ee\u8428\u5854\u79d1\u6280\u4e2d\u56fd\u533a\u7814\u53d1\u4e2d\u5fc32017\u5c4a\u62db\u8058\u7b80\u7ae0
p1226
sg4
I10131800
sg5
V10\u670813\u65e518:00
p1227
sg7
V\u673a\u68b0\u6750\u6599\u9986\u516b\u697c\u4f1a\u8bae\u5ba4(\u5e02\u573a\u79d1/538)
p1228
sa(dp1229
g2
V\u4e2d\u94f6\u4fdd\u9669\u6709\u9650\u516c\u53f82017\u5e74\u6821\u56ed\u62db\u8058\u7b80\u7ae0
p1230
sg4
I10131830
sg5
V10\u670813\u65e518:30
p1231
sg7
V\u5357\u5cad\u4e00\u6559102(\u5e02\u573a\u79d1/360)
p1232
sa(dp1233
g2
V\u6b27\u83f2\u51492017\u5c4a\u6821\u56ed\u62db\u8058
p1234
sg4
I10141000
sg5
V10\u670814\u65e510:00
p1235
sg7
V\u5357\u533a\u7ecf\u4fe1F10(\u5e02\u573a\u79d1/768)
p1236
sa(dp1237
g2
V\u4e2d\u56fd\u822a\u5929\u79d1\u5de5\u96c6\u56e2\u7b2c\u516d\u7814\u7a76\u9662
p1238
sg4
I10141000
sg5
V10\u670814\u65e510:00
p1239
sg7
V\u5357\u5cad\u4e00\u6559302(\u5e02\u573a\u79d1/611)
p1240
sa(dp1241
g2
V\u6606\u5c71\u9f99\u817e\u5149\u75352017\u5c4a\u6821\u56ed\u62db\u8058\u7b80\u7ae0
p1242
sg4
I10141000
sg5
V10\u670814\u65e510:00
p1243
sg7
V\u674e\u56db\u5149109(\u5e02\u573a\u79d1/436)
p1244
sa(dp1245
g2
V\u957f\u5b89\u6c7d\u8f662017\u5e74\u6821\u56ed\u62db\u8058
p1246
sg4
I10141030
sg5
V10\u670814\u65e510:30
p1247
sg7
V\u5357\u5cad\u9038\u592b\u697cA103(\u5e02\u573a\u79d1/437)
p1248
sa(dp1249
g2
V\u6b4c\u5c14\u80a1\u4efd\u6709\u9650\u516c\u53f8\u6821\u56ed\u62db\u8058
p1250
sg4
I10141330
sg5
V10\u670814\u65e513:30
p1251
sg7
V\u5357\u533a\u7ecf\u4fe1F4(\u5e02\u573a\u79d1/460)
p1252
sa(dp1253
g2
V\u4e2d\u4ea4\u7b2c\u4e00\u822a\u52a1\u5de5\u7a0b\u5c40\u6709\u9650\u516c\u53f8
p1254
sg4
I10141330
sg5
V10\u670814\u65e513:30
p1255
sg7
V\u5357\u533a\u7ecf\u4fe1c103(\u5e02\u573a\u79d1/384)
p1256
sa(dp1257
g2
V\u957f\u6625\u7ea2\u661f\u7f8e\u51ef\u9f99
p1258
sg4
I10141330
sg5
V10\u670814\u65e513:30
p1259
sg7
V\u5f85\u5b9a(\u5e02\u573a\u79d1/814)
p1260
sa(dp1261
g2
V\u7ea2\u661f\u7f8e\u51ef\u9f992017\u5c4a\u661f\u52a8\u529b\u6821\u56ed\u62db\u8058
p1262
sg4
I10141330
sg5
V10\u670814\u65e513:30
p1263
sg7
V\u5f85\u5b9a(\u5e02\u573a\u79d1/585)
p1264
sa(dp1265
g2
V\u956d\u76ee\u516c\u53f8\u62db\u8058\u7b80\u7ae0
p1266
sg4
I10141530
sg5
V10\u670814\u65e515:30
p1267
sg7
V\u5357\u5cad
p1268
sa(dp1269
g2
V\u4f17\u6cf0\u6c7d\u8f662017\u6821\u56ed\u62db\u8058\u7b80\u7ae0
p1270
sg4
I10141530
sg5
V10\u670814\u65e515:30
p1271
sg7
V\u5357\u5cad\u9038\u592bB416(\u5e02\u573a\u79d1/1085)
p1272
sa(dp1273
g2
V\u9752\u5c9b\u827e\u8bfa\u667a\u80fd\u4eea\u5668\u6709\u9650\u516c\u53f8\u6821\u56ed\u62db\u8058
p1274
sg4
I10141800
sg5
V10\u670814\u65e518:00
p1275
sg7
V\u5357\u533a\u7ecf\u4fe1D104(\u5e02\u573a\u79d1/475)
p1276
sa(dp1277
g2
VBOE\uff08\u4eac\u4e1c\u65b9\uff092017\u6821\u56ed\u62db\u8058\u6b63\u5f0f\u542f\u52a8 \u5357\u533a
p1278
sg4
I10141800
sg5
V10\u670814\u65e518:00
p1279
sg7
V\u5357\u533a\u674e\u56db\u5149\u4e00\u9636(\u5e02\u573a\u79d1/1463)
p1280
sa(dp1281
g2
V\u4e2d\u56fd\u6c7d\u8f66\u5de5\u4e1a\u5de5\u7a0b\u6709\u9650\u516c\u53f82017\u5e74\u6821\u56ed\u62db\u8058
p1282
sg4
I10141800
sg5
V10\u670814\u65e518:00
p1283
sg7
V\u5357\u5cad
p1284
sa(dp1285
g2
V\u798f\u8000\u96c6\u56e22016-2017\u5e74\u5ea6\u6821\u56ed\u62db\u8058
p1286
sg4
I10141830
sg5
V10\u670814\u65e518:30
p1287
sg7
V\u5357\u5cad\u6821\u533a\u4e00\u6559123(\u5e02\u573a\u79d1/476)
p1288
sa(dp1289
g2
V\u5929\u6d25\u5929\u5730\u4f1f\u4e1a\u6570\u7801\u79d1\u6280\u6709\u9650\u516c\u53f8\u62db\u8058\u4fe1\u606f
p1290
sg4
I10141830
sg5
V10\u670814\u65e518:30
p1291
sg7
V\u5357\u533a\u5f85\u5b9a(\u5e02\u573a\u79d1/293)
p1292
sa(dp1293
g2
V\u8bfa\u79be\u81f4\u6e90\u79d1\u6280\u80a1\u4efd\u6709\u9650\u516c\u53f82017\u6821\u56ed\u62db\u8058\u7b80\u7ae0
p1294
sg4
I10141830
sg5
V10\u670814\u65e518:30
p1295
sg7
V\u5357\u533a\u7ecf\u4fe1A105(\u5e02\u573a\u79d1/338)
p1296
sa(dp1297
g2
V2017\u5e74\u9655\u6c7d\u63a7\u80a1\u9655\u897f\u91cd\u578b\u6c7d\u8f66\u6709\u9650\u516c\u53f8\u6821\u56ed\u62db\u8058\u6b63\u5f0f\u542f\u52a8\uff01
p1298
sg4
I10141900
sg5
V10\u670814\u65e519:00
p1299
sg7
V\u5357\u5cad\u673a\u68b0\u6750\u6599\u5b988\u697c\u6750\u6599\u62a5\u544a\u5385(\u5e02\u573a\u79d1/407)
p1300
sa(dp1301
g2
V\u8fdc\u4e1c\u56fd\u9645
p1302
sg4
I10150800
sg5
V10\u670815\u65e508:00
p1303
sg7
V\u5357\u533a\u674e\u56db\u5149306(\u5e02\u573a\u79d1/254)
p1304
sa(dp1305
g2
V\u5c71\u4e1c\u7535\u529b\u5efa\u8bbe\u7b2c\u4e00\u5de5\u7a0b\u516c\u53f82017\u5e74\u62db\u8058
p1306
sg4
I10151330
sg5
V10\u670815\u65e513:30
p1307
sg7
V\u5357\u5cad\u6821\u533a\u5f85\u5b9a(\u5e02\u573a\u79d1/158)
p1308
sa(dp1309
g2
V\u901f\u5ea6\u4e0e\u6fc0\u60c5\u2014\u2014\u901f\u5ea6\u667a\u80fd2017\u6821\u56ed\u62db\u8058\u7b80\u7ae0
p1310
sg4
I10151530
sg5
V10\u670815\u65e515:30
p1311
sg7
V\u5357\u5cad\u9038\u592bA509(\u5e02\u573a\u79d1/230)
p1312
sa(dp1313
g2
V\u592a\u6781\u8ba1\u7b97\u673a\u80a1\u4efd\u6709\u9650\u516c\u53f8\u62db\u8058\u4fe1\u606f
p1314
sg4
I10151530
sg5
V10\u670815\u65e515:30
p1315
sg7
V\u5357\u533a\u5f85\u5b9a(\u5e02\u573a\u79d1/256)
p1316
sa(dp1317
g2
V\u8c6a\u8fc8\u96c6\u56e2
p1318
sg4
I10151800
sg5
V10\u670815\u65e518:00
p1319
sg7
V\u5357\u5cad\u4e00\u6559101(\u5e02\u573a\u79d1/215)
p1320
sa(dp1321
g2
V\u4e2d\u56fd\u845b\u6d32\u575d\u96c6\u56e2\u4e09\u5ce1\u5efa\u8bbe\u5de5\u7a0b\u6709\u9650\u516c\u53f8 2017\u5e74\u5e94\u5c4a\u6bd5\u4e1a\u751f\u62db\u8058\u7b80\u7ae0
p1322
sg4
I10151800
sg5
V10\u670815\u65e518:00
p1323
sg7
V\u6c34\u5de5\u697c417\u6559\u5ba4(\u5e02\u573a\u79d1/137)
p1324
sa(dp1325
g2
V\u65b0\u57ce\u63a7\u80a1\u96c6\u56e22017\u5168\u56fd\u6821\u56ed\u62db\u8058
p1326
sg4
I10151830
sg5
V10\u670815\u65e518:30
p1327
sg7
V\u5357\u533a\u674e\u56db\u5149302(\u5e02\u573a\u79d1/455)
p1328
sa(dp1329
g2
V\u798f\u5efa\u7701\u957f\u6c40\u91d1\u9f99\u7a00\u571f\u6709\u9650\u516c\u53f8
p1330
sg4
I10161000
sg5
V10\u670816\u65e510:00
p1331
sg7
V\u5f85\u5b9a(\u5e02\u573a\u79d1/177)
p1332
sa(dp1333
g2
V\u200b 2017\u5c4a \u706b\u661f\u4eba\u53a8\u5177 \u6821\u56ed\u62db\u8058\u7b80\u7ae0
p1334
sg4
I10161400
sg5
V10\u670816\u65e514:00
p1335
sg7
V\u5357\u533a\u5f85\u5b9a(\u5e02\u573a\u79d1/75)
p1336
sa(dp1337
g2
V\u200b \u4e1c\u65b9\u7535\u5b50\u96c6\u56e2\u6709\u9650\u516c\u53f82017\u5e74\u5ea6\u6821\u56ed\u62db\u8058
p1338
sg4
I10161530
sg5
V10\u670816\u65e515:30
p1339
sg7
V\u5357\u533a\u674e\u56db\u5149107\u6559\u5ba4(\u5e02\u573a\u79d1/883)
p1340
sa(dp1341
g2
V\u79e6\u7687\u5c9b\u5eb7\u59ff\u767e\u5fb7\u62db\u8058\u4fe1\u606f
p1342
sg4
I10161800
sg5
V10\u670816\u65e518:00
p1343
sg7
V\u5357\u533a\u7ecf\u4fe1F2
p1344
sa(dp1345
g2
V\u5e0c\u5c14\u987f\u5168\u74032017\u5927\u4e2d\u534e\u533a\u53ca\u8499\u53e4\u7ba1\u7406\u57f9\u8bad\u751f\u6821\u56ed\u62db\u8058
p1346
sg4
I10171330
sg5
V10\u670817\u65e513:30
p1347
sg7
V\u5357\u533a\u7ecf\u4fe1c203(\u5e02\u573a\u79d1/710)
p1348
sa(dp1349
g2
V\u4e07\u8fbe\u4fe1\u606f\u80a1\u4efd\u6709\u9650\u516c\u53f8
p1350
sg4
I10171530
sg5
V10\u670817\u65e515:30
p1351
sg7
V\u674e\u56db\u5149304(\u5e02\u573a\u79d1/859)
p1352
sa(dp1353
g2
V\u7f8e\u76c8\u68ee\u96c6\u56e2\u80a1\u4efd\u6709\u9650\u516c\u53f8
p1354
sg4
I10171530
sg5
V10\u670817\u65e515:30
p1355
sg7
V\u5357\u533a\u674e\u56db\u5149210(\u5e02\u573a\u79d1/242)
p1356
sa(dp1357
g2
V\u6b66\u6c49\u65b0\u82af\u96c6\u6210\u7535\u8def
p1358
sg4
I10171830
sg5
V10\u670817\u65e518:30
p1359
sg7
V\u5f85\u5b9a(\u5e02\u573a\u79d1/322)
p1360
sa(dp1361
g2
V\u957f\u6c5f\u5b58\u50a8/\u6b66\u6c49\u65b0\u82af2017\u5e74\u6821\u56ed\u62db\u8058
p1362
sg4
I10171830
sg5
V10\u670817\u65e518:30
p1363
sg7
V\u5f85\u5b9a(\u5e02\u573a\u79d1/257)
p1364
sa(dp1365
g2
V\u5c71\u4e1c\u4e34\u5de52017\u5e74\u6821\u56ed\u62db\u8058
p1366
sg4
I10171830
sg5
V10\u670817\u65e518:30
p1367
sg7
V\u673a\u68b0\u6750\u6599\u99868\u697c\u4f1a\u8bae\u5ba4(\u5e02\u573a\u79d1/421)
p1368
sa(dp1369
g2
V2017 Zenjoy\u6821\u56ed\u62db\u8058\uff1a\u8d85\u7ea7\u7801\u529b\uff0c\u73a9\u51fa\u91ce\u5fc3
p1370
sg4
I10171830
sg5
V10\u670817\u65e518:30
p1371
sg7
V\u5357\u533aA106(\u5e02\u573a\u79d1/94)
p1372
sa(dp1373
g2
V\u5bcc\u58eb\u5eb7\u79d1\u6280\u96c6\u56e22017\u5c4a\u201c\u83c1\u5e72\u73ed\u201d\u6821\u56ed\u62db\u8058
p1374
sg4
I10180900
sg5
V10\u670818\u65e509:00
p1375
sg7
V\u5357\u533a\u7ecf\u4fe1F5(\u5e02\u573a\u79d1/859)
p1376
sa(dp1377
g2
V\u5317\u4eac\u4e2d\u6052\u535a\u745e(\u80fd\u6e90\u4e92\u8054\u7f51\u9886\u519b\u4f01\u4e1a)2017\u5e74\u62db\u8058\u7b80\u7ae0
p1378
sg4
I10181530
sg5
V10\u670818\u65e515:30
p1379
sg7
V\u5357\u533a\u674e\u56db\u5149208(\u5e02\u573a\u79d1/155)
p1380
sa(dp1381
g2
V2017\u4e91\u5eb7\u5168\u56fd\u9ad8\u6821\u62db\u8058\u8ba1\u5212
p1382
sg4
I10181530
sg5
V10\u670818\u65e515:30
p1383
sg7
V\u5357\u533a\u5f85\u5b9a(\u5e02\u573a\u79d1/277)
p1384
sa(dp1385
g2
V\u4e2d\u822a\u5de5\u4e1a\u54c8\u5c14\u6ee8\u98de\u673a\u5de5\u4e1a\u96c6\u56e2\u6709\u9650\u8d23\u4efb\u516c\u53f8\u62db\u8058\u4fe1\u606f
p1386
sg4
I10181800
sg5
V10\u670818\u65e518:00
p1387
sg7
V\u5357\u5cad\u6821\u533a\u9038\u592b\u697cA501(\u5e02\u573a\u79d1/271)
p1388
sa(dp1389
g2
V\u91d1\u7acb\u96c6\u56e22017\u5c4a\u6821\u56ed\u62db\u8058
p1390
sg4
I10181800
sg5
V10\u670818\u65e518:00
p1391
sg7
V\u5357\u533a\u674e\u56db\u5149204(\u5e02\u573a\u79d1/923)
p1392
sa(dp1393
g2
V\u745e\u65af\u5eb7\u8fbe\u79d1\u6280\u53d1\u5c55\u80a1\u4efd\u6709\u9650\u516c\u53f8\u6821\u56ed\u62db\u8058
p1394
sg4
I10181800
sg5
V10\u670818\u65e518:00
p1395
sg7
V\u5357\u533a\u5f85\u5b9a(\u5e02\u573a\u79d1/151)
p1396
sa(dp1397
g2
V\u7eff\u53f6\u5236\u836f\u96c6\u56e2\u6821\u56ed\u5ba3\u8bb2\u4f1a
p1398
sg4
I10181830
sg5
V10\u670818\u65e518:30
p1399
sg7
V\u5357\u533a\u674e\u56db\u5149\u697c304(\u5e02\u573a\u79d1/144)
p1400
sa(dp1401
g2
V\u521b\u7ef4\u96c6\u56e22017\u5c4a\u6821\u56ed\u62db\u8058\u542f\u52a8\u901a\u77e5
p1402
sg4
I10181830
sg5
V10\u670818\u65e518:30
p1403
sg7
V\u5f85\u5b9a(\u5e02\u573a\u79d1/695)
p1404
sa(dp1405
g2
V\u200b \u521b\u7ef4\u96c6\u56e22017\u5c4a\u6821\u56ed\u62db\u8058\u4fe1\u606f
p1406
sg4
I10181830
sg5
V10\u670818\u65e518:30
p1407
sg7
V\u5357\u533a\u9038\u592b\u5341\u4e09\u9636(\u5e02\u573a\u79d1/752)
p1408
sa(dp1409
g2
V\u9752\u6625\u5c0f\u76ee\u6807\uff0c\u4eba\u751f\u5927\u68a6\u60f3 \u200b\u2014\u2014\u5bfb\u627e\u7231\u201c\u8fea\u201d\u751f\u4e4b\u65c5   \u676d\u5dde\u8fea\u666e\u79d1\u6280\u6709\u9650\u516c\u53f82017\u5c4a\u6821\u56ed\u62db\u8058
p1410
sg4
I10191300
sg5
V10\u670819\u65e513:00
p1411
sg7
V\u7ecf\u4fe1F7(\u5e02\u573a\u79d1/78)
p1412
sa(dp1413
g2
V\u591a\u76ca\u7f51\u7edc2017\u5168\u56fd\u6821\u56ed\u62db\u8058
p1414
sg4
I10191330
sg5
V10\u670819\u65e513:30
p1415
sg7
V\u5357\u533a\u7ecf\u4fe1F6(\u5e02\u573a\u79d1/320)
p1416
sa(dp1417
g2
V\u5317\u4eac\u4e07\u751f\u836f\u4e1a\u6709\u9650\u8d23\u4efb\u516c\u53f8
p1418
sg4
I10191330
sg5
V10\u670819\u65e513:30
p1419
sg7
V\u5357\u533a\u7ecf\u4fe1C201\uff0cC203(\u5e02\u573a\u79d1/344)
p1420
sa(dp1421
g2
V\u601d\u79d1\u5927\u8fde\u6821\u56ed\u62db\u8058
p1422
sg4
I10191500
sg5
V10\u670819\u65e515:00
p1423
sg7
V\u5357\u533a\u5916\u8bed\u697c508(\u5e02\u573a\u79d1/115)
p1424
sa(dp1425
g2
V\u4e2d\u56fd\u822a\u5929\u79d1\u5de5\u96c6\u56e2\u7b2c\u5341\u7814\u7a76\u9662\u62db\u8058
p1426
sg4
I10191800
sg5
V10\u670819\u65e518:00
p1427
sg7
V\u5357\u5cad\u7b2c\u4e00\u6559\u5b66\u697c101(\u5e02\u573a\u79d1/1114)
p1428
sa(dp1429
g2
V\u5317\u4eac\u601d\u6e90\u5174\u4e1a\u623f\u5730\u4ea7\u670d\u52a1\u96c6\u56e2\u6709\u9650\u516c\u53f8\u6821\u56ed\u62db\u8058
p1430
sg4
I10191800
sg5
V10\u670819\u65e518:00
p1431
sg7
V\u5357\u533a\u674e\u56db\u5149204(\u5e02\u573a\u79d1/169)
p1432
sa(dp1433
g2
V\u200b 2017\u79cb\u5b63\u6821\u56ed\u62db\u8058 \u5b66\u800c\u601d\u7f51\u6821 \u5728\u7ebf\u6559\u5e08 \u62db\u52df
p1434
sg4
I10191800
sg5
V10\u670819\u65e518:00
p1435
sg7
V\u5357\u533a\u5f85\u5b9a(\u5e02\u573a\u79d1/50)
p1436
sa(dp1437
g2
V\u5b89\u8e0f\u4f53\u80b2\u7528\u54c1\u6709\u9650\u516c\u53f8\u6821\u56ed\u62db\u8058
p1438
sg4
I10200000
sg5
V10\u670820\u65e500:00
p1439
sg7
V\u5357\u533a\u674e\u56db\u5149204(\u5e02\u573a\u79d1/534)
p1440
sa(dp1441
g2
V\u5929\u6d25\u5149\u7535\u96c6\u56e2 2017\u5e74\u6821\u56ed\u62db\u8058\u7b80\u7ae0
p1442
sg4
I10201000
sg5
V10\u670820\u65e510:00
p1443
sg7
V\u5357\u533a\u5f85\u5b9a(\u5e02\u573a\u79d1/9)
p1444
sa(dp1445
g2
V\u5317\u4eac\u6211\u7231\u6211\u5bb6
p1446
sg4
I10201000
sg5
V10\u670820\u65e510:00
p1447
sg7
V\u5357\u533a\u7ecf\u4fe1C101(\u5e02\u573a\u79d1/260)
p1448
sa(dp1449
g2
V\u957f\u57ce\u6c7d\u8f66\u80a1\u4efd\u6709\u9650\u516c\u53f8 2017\u5c4a\u6821\u56ed\u62db\u8058\u7b80\u7ae0
p1450
sg4
I10201000
sg5
V10\u670820\u65e510:00
p1451
sg7
V\u5357\u5cad\u6821\u533a\u9038\u592b\u697cB110(\u5e02\u573a\u79d1/334)
p1452
sa(dp1453
g2
V\u5317\u4eac\u5bcc\u5409\u745e\u5149\u7535\u79d1\u6280\u6709\u9650\u516c\u53f8\u6821\u56ed\u62db\u8058
p1454
sg4
I10201330
sg5
V10\u670820\u65e513:30
p1455
sg7
V\u5357\u533a\u5f85\u5b9a(\u5e02\u573a\u79d1/233)
p1456
sa(dp1457
g2
V\u6c5f\u82cf\u5174\u8fbe\u94a2\u5e18\u7ebf\u6821\u56ed\u62db\u8058
p1458
sg4
I10201330
sg5
V10\u670820\u65e513:30
p1459
sg7
V\u5357\u533a\u5f85\u5b9a(\u5e02\u573a\u79d1/126)
p1460
sa(dp1461
g2
V\u200b \u5929\u6d25\u5e02\u6377\u5a01\u52a8\u529b\u5de5\u4e1a\u6709\u9650\u516c\u53f8\u62db\u8058
p1462
sg4
I10201530
sg5
V10\u670820\u65e515:30
p1463
sg7
V\u5357\u533a\u674e\u56db\u5149304(\u5e02\u573a\u79d1/179)
p1464
sa(dp1465
g2
V\u5e7f\u5dde\u51e1\u62d3\u6570\u5b57\u521b\u610f\u79d1\u6280\u80a1\u4efd\u6709\u9650\u516c\u53f8\u5317\u4eac\u5206\u516c\u53f82017\u6821\u62db\u7b80\u7ae0
p1466
sg4
I10201800
sg5
V10\u670820\u65e518:00
p1467
sg7
V\u5357\u533a\u827a\u672f\u5b66\u9662\u97f3\u4e50\u5385(\u5e02\u573a\u79d1/72)
p1468
sa(dp1469
g2
V[\u7f6e\u9876]\uff08\uff01\u5730\u70b9\u66f4\u6539\uff09\u9f99\u6e56\u5730\u4ea72017\u4ed5\u5b98\u751f\u6821\u56ed\u62db\u8058\uff08\u5409\u6797\u5927\u5b66\u7ad9\uff09\u6b63\u5f0f\u542f\u52a8\uff01\uff08\u73b0\u573a\u63a5\u53d7\u7b80\u5386+\u7cbe\u7f8e\u793c\u54c1\uff09
p1470
sg4
I10201830
sg5
V10\u670820\u65e518:30
p1471
sg7
V\u5357\u533a\u7ecf\u4fe1F5(\u5e02\u573a\u79d1/3433)
p1472
sa(dp1473
g2
V\u81fb\u9f0e\u79d1\u62802017\u6821\u56ed\u62db\u8058
p1474
sg4
I10211000
sg5
V10\u670821\u65e510:00
p1475
sg7
V\u5357\u5cad\u6821\u533a
p1476
sa(dp1477
g2
V\u4e2d\u5c71\u5927\u6d0b\u7535\u673a2017\u5e74\u6821\u56ed\u62db\u8058
p1478
sg4
I10211000
sg5
V10\u670821\u65e510:00
p1479
sg7
V\u5f85\u5b9a(\u5e02\u573a\u79d1/289)
p1480
sa(dp1481
g2
V\u200b \u5927\u5510\u7535\u4fe12017\u5e74\u6821\u56ed\u62db\u8058\u7b80\u7ae0
p1482
sg4
I10211300
sg5
V10\u670821\u65e513:00
p1483
sg7
V\u5357\u533a\u7ecf\u4fe1F4(\u5e02\u573a\u79d1/357)
p1484
sa(dp1485
g2
V\u60e0\u5dde\u4ebf\u7eac\u9502\u80fd\u80a1\u4efd\u6709\u9650\u516c\u53f82017\u6821\u56ed\u62db\u8058
p1486
sg4
I10211330
sg5
V10\u670821\u65e513:30
p1487
sg7
V\u5357\u5cad\u4e00\u6559223(\u5e02\u573a\u79d1/16)
p1488
sa(dp1489
g2
V\u957f\u6625\u5927\u6b63\u535a\u51ef\u6c7d\u8f66\u8bbe\u5907\u6709\u9650\u516c\u53f82017\u5c4a\u62db\u751f\u7b80\u7ae0
p1490
sg4
I10211330
sg5
V10\u670821\u65e513:30
p1491
sg7
V\u9038\u592b\u697cA506(\u5e02\u573a\u79d1/573)
p1492
sa(dp1493
g2
V\u4fe1\u5229\u96c6\u56e2
p1494
sg4
I10211330
sg5
V10\u670821\u65e513:30
p1495
sg7
V\u5357\u5cad\u9038\u592b\u697cA504(\u5e02\u573a\u79d1/376)
p1496
sa(dp1497
g2
V\u629a\u987a\u94f6\u884c\u80a1\u4efd\u6709\u9650\u516c\u53f82017\u5e74\u5ea6 \u7ba1\u7406\u57f9\u8bad\u751f\u6821\u56ed\u62db\u8058\u516c\u544a
p1498
sg4
I10211400
sg5
V10\u670821\u65e514:00
p1499
sg7
V\u5357\u533a\u5f85\u5b9a(\u5e02\u573a\u79d1/72)
p1500
sa(dp1501
g2
VTCL\u96c6\u56e22017\u5c4a\u6821\u56ed\u62db\u8058
p1502
sg4
I10211500
sg5
V10\u670821\u65e515:00
p1503
sg7
V\u5357\u533a\u7ecf\u4fe1F5(\u5e02\u573a\u79d1/1066)
p1504
sa(dp1505
g2
V\u200b \u4e2d\u5efa\u4e00\u5c40\u96c6\u56e2\u5efa\u8bbe\u53d1\u5c55\u6709\u9650\u516c\u53f8\u62db\u8058
p1506
sg4
I10211530
sg5
V10\u670821\u65e515:30
p1507
sg7
V\u5357\u533a\u5f85\u5b9a(\u5e02\u573a\u79d1/45)
p1508
sa(dp1509
g2
V\u5317\u4eac\u666e\u83b1\u5fb7\u65b0\u80fd\u6e90\u7535\u6c60\u79d1\u6280\u6709\u9650\u516c\u53f8 2017\u5e74\u79cb\u5b63\u6821\u56ed\u62db\u8058
p1510
sg4
I10211800
sg5
V10\u670821\u65e518:00
p1511
sg7
V\u5357\u5cad\u4e00\u6559124(\u5e02\u573a\u79d1/27)
p1512
sa(dp1513
g2
V\u65b0\u5965\u96c6\u56e2\u62db\u8058\u7b80\u7ae0
p1514
sg4
I10211830
sg5
V10\u670821\u65e518:30
p1515
sg7
V\u5357\u533a\u5f85\u5b9a(\u5e02\u573a\u79d1/418)
p1516
sa(dp1517
g2
V\u535a\u5965\u533b\u5b66\u68c0\u9a8c\u6240\u6821\u56ed\u62db\u8058
p1518
sg4
I10221330
sg5
V10\u670822\u65e513:30
p1519
sg7
V\u5357\u533a\u5f85\u5b9a(\u5e02\u573a\u79d1/3)
p1520
sa(dp1521
g2
V\u94f6\u5ba2\u96c6\u56e22017\u79cb\u5b63\u6821\u56ed\u62db\u8058
p1522
sg4
I10221400
sg5
V10\u670822\u65e514:00
p1523
sg7
V\u5357\u533a\u5f85\u5b9a(\u5e02\u573a\u79d1/35)
p1524
sa(dp1525
g2
V\u4e0e\u79d1\u6280\u540c\u884c \u8ba9\u68a6\u60f3\u53d1\u58f0                                 \u2014\u2014\u745e\u58f0\u79d1\u6280
p1526
sg4
I10221830
sg5
V10\u670822\u65e518:30
p1527
sg7
V\u5357\u533a\u7ecf\u4fe1F2(\u5e02\u573a\u79d1/682)
p1528
sa(dp1529
g2
V\u5bcc\u58eb\u5eb7\u79d1\u6280\u96c6\u56e2-\u5bcc\u667a\u5eb7\u7cbe\u5bc6\u7535\u5b50\uff08\u5eca\u574a\uff09\u6709\u9650\u516c\u53f8\u62db\u8058
p1530
sg4
I10231000
sg5
V10\u670823\u65e510:00
p1531
sg7
V\u5357\u533a\u7ecf\u4fe1A105(\u5e02\u573a\u79d1/11)
p1532
sa(dp1533
g2
V\u6df1\u5733\u5e02\u6c83\u5c14\u6838\u6750\u80a1\u4efd\u6709\u9650\u516c\u53f8
p1534
sg4
I10231000
sg5
V10\u670823\u65e510:00
p1535
sg7
V\u5357\u5cad\u6821\u533a\u4e00\u6559101(\u5e02\u573a\u79d1/108)
p1536
sa(dp1537
g2
V\u5408\u80a5\u4f1a\u901a\u65b0\u6750\u6599\u6709\u9650\u516c\u53f8
p1538
sg4
I10231530
sg5
V10\u670823\u65e515:30
p1539
sg7
V\u5357\u5cad\u4e00\u6559102(\u5e02\u573a\u79d1/27)
p1540
sa(dp1541
g2
V\u8fbd\u5b81\u66d9\u5149\u6c7d\u8f66\u96c6\u56e2\u80a1\u4efd\u6709\u9650\u516c\u53f8\u6821\u56ed\u62db\u8058
p1542
sg4
I10231800
sg5
V10\u670823\u65e518:00
p1543
sg7
V\u5357\u5cad\u6821\u533a\uff08\u6559\u5ba4\u5f85\u5b9a\uff09(\u5e02\u573a\u79d1/250)
p1544
sa(dp1545
g2
V\u6df1\u5733\u56fd\u4eba\u901a\u4fe1\u80a1\u4efd\u6709\u9650\u516c\u53f8\u62db\u8058
p1546
sg4
I10241000
sg5
V10\u670824\u65e510:00
p1547
sg7
V\u5357\u533a\u5f85\u5b9a(\u5e02\u573a\u79d1/19)
p1548
sa(dp1549
g2
V\u201c\u6562\uff01\u552f\u521b\u65b0\u201dRIGOL2017\u6821\u56ed\u62db\u8058
p1550
sg4
I10241530
sg5
V10\u670824\u65e515:30
p1551
sg7
V\u5357\u533a\u674e\u56db\u5149304(\u5e02\u573a\u79d1/406)
p1552
sa(dp1553
g2
V\u5e7f\u4e1c\u5b9d\u83b1\u7279\u533b\u7528\u79d1\u6280\u80a1\u4efd\u6709\u9650\u516c\u53f8 2017\u6821\u56ed\u62db\u8058\u7b80\u7ae0
p1554
sg4
I10251000
sg5
V10\u670825\u65e510:00
p1555
sg7
V\u5357\u533a\u7ecf\u4fe1C103(\u5e02\u573a\u79d1/171)
p1556
sa(dp1557
g2
V\u597d\u672a\u6765\u6559\u80b2\uff08\u539f\u5b66\u800c\u601d\uff09-\u7231\u667a\u5eb7\u62db\u8058\u4fe1\u606f
p1558
sg4
I10251330
sg5
V10\u670825\u65e513:30
p1559
sg7
V\u5357\u533a\u5f85\u5b9a(\u5e02\u573a\u79d1/743)
p1560
sa(dp1561
g2
V\u4e2d\u5173\u6751\u4e1c\u5347\u79d1\u6280\u56ed\u62db\u8058\u804c\u4f4d(2017\u5e94\u5c4a\u6bd5\u4e1a\u751f)
p1562
sg4
I10251830
sg5
V10\u670825\u65e518:30
p1563
sg7
V\u5357\u533a\u674e\u56db\u5149206(\u5e02\u573a\u79d1/172)
p1564
sa(dp1565
g2
V\u6b63\u4fdd\u6559\u80b2\u96c6\u56e22017\u6821\u56ed\u62db\u8058\uff08\u7ebd\u4ea4\u6240\u4e0a\u5e02\u516c\u53f8\uff09
p1566
sg4
I10261400
sg5
V10\u670826\u65e514:00
p1567
sg7
V\u5357\u533a\u7ecf\u4fe1C111(\u5e02\u573a\u79d1/337)
p1568
sa(dp1569
g2
V\u6df1\u5733\u534e\u5927\u57fa\u56e0\u79d1\u6280\u6709\u9650\u516c\u53f8\u62db\u751f\u7b80\u7ae0
p1570
sg4
I10271800
sg5
V10\u670827\u65e518:00
p1571
sg7
V\u5f85\u5b9a(\u5e02\u573a\u79d1/215)
p1572
sa(dp1573
g2
V\u534e\u5927\u57fa\u56e0\u5c55\u7ffc2017\u6821\u56ed\u62db\u8058 \u706b\u70ed\u542f\u52a8\u2026\u2026
p1574
sg4
I10271800
sg5
V10\u670827\u65e518:00
p1575
sg7
V\u5f85\u5b9a(\u5e02\u573a\u79d1/231)
p1576
sa(dp1577
g2
V\u535a\u683c\u534e\u7eb3\uff08\u4e2d\u56fd\uff09\u6295\u8d44\u6709\u9650\u516c\u53f8
p1578
sg4
I10271830
sg5
V10\u670827\u65e518:30
p1579
sg7
V\u5357\u5cad\u4e00\u6559124(\u5e02\u573a\u79d1/239)
p1580
sa(dp1581
g2
V\u7f8e\u4e3d\u4e2d\u56fd2016\u6821\u56ed\u62db\u8058
p1582
sg4
I10271900
sg5
V10\u670827\u65e519:00
p1583
sg7
V\u5f85\u5b9a(\u5e02\u573a\u79d1/776)
p1584
sa(dp1585
g2
V\u5965\u6258\u7acb\u592b2016\u5e74\u6821\u56ed\u62db\u8058 \u2013 \u4e8e\u8d77\u70b9\uff0c\u5df2\u975e\u51e1\uff01
p1586
sg4
I10281000
sg5
V10\u670828\u65e510:00
p1587
sg7
V\u5357\u5cad\u6821\u533a\u4e00\u6559302(\u5e02\u573a\u79d1/66)
p1588
sa(dp1589
g2
V\u4e0a\u6d77\u836f\u660e\u5eb7\u5fb7
p1590
sg4
I10281330
sg5
V10\u670828\u65e513:30
p1591
sg7
V\u5f85\u5b9a(\u5e02\u573a\u79d1/228)
p1592
sa(dp1593
g2
V\u5c71\u4e1c\u65b0\u534e\u533b\u7597\u5668\u68b0\u80a1\u4efd\u6709\u9650\u516c\u53f82017\u5e74\u6821\u56ed\u62db\u8058\u7b80\u7ae0
p1594
sg4
I10291800
sg5
V10\u670829\u65e518:00
p1595
sg7
V\u5357\u5cad\u9038\u592bA202(\u5e02\u573a\u79d1/478)
p1596
sa(dp1597
g2
V\u200b\u5fb7\u90a62017\u6821\u56ed\u62db\u8058\u706b\u70ed\u542f\u52a8\uff01
p1598
sg4
I10291800
sg5
V10\u670829\u65e518:00
p1599
sg7
V\u5357\u533a\u674e\u56db\u5149\u4e00\u9636(\u5e02\u573a\u79d1/303)
p1600
sa(dp1601
g2
V\u5b89\u8bfa\u4f18\u8fbe\u57fa\u56e0\u79d1\u6280\uff08\u5317\u4eac\uff09\u6709\u9650\u516c\u53f8 \u56fd\u5bb6\u57fa\u56e0\u68c0\u6d4b\u6280\u672f\u5e94\u7528\u793a\u8303\u4e2d\u5fc3 2017\u6821\u56ed\u62db\u8058\u7b80\u7ae0
p1602
sg4
I11021800
sg5
V11\u670802\u65e518:00
p1603
sg7
V\u5357\u533a\u674e\u56db\u5149207(\u5e02\u573a\u79d1/232)
p1604
sa.